	.text
	.file	"Unified_cpp_js_src_wasm2.cpp"
	.section	.text._ZN2js4wasm6ModuleD2Ev,"ax",@progbits
	.hidden	_ZN2js4wasm6ModuleD2Ev  # -- Begin function _ZN2js4wasm6ModuleD2Ev
	.globl	_ZN2js4wasm6ModuleD2Ev
	.p2align	4, 0x90
	.type	_ZN2js4wasm6ModuleD2Ev,@function
_ZN2js4wasm6ModuleD2Ev:                 # @_ZN2js4wasm6ModuleD2Ev
	.cfi_startproc
	movq	(%rsp), %r10
	addq	%gs:(16), %r10
	movq	%gs:(8), %r11
	movq	%r10, (%rsp, %r11, 1)
# %bb.0:
###SPA## trampoline_fmt_64
	pushq	%r15
	.cfi_def_cfa_offset 16
	pushq	%r14
	.cfi_def_cfa_offset 24
	pushq	%r12
	.cfi_def_cfa_offset 32
	pushq	%rbx
	.cfi_def_cfa_offset 40
	pushq	%rax
	.cfi_def_cfa_offset 48
	.cfi_offset %rbx, -40
	.cfi_offset %r12, -32
	.cfi_offset %r14, -24
	.cfi_offset %r15, -16
	movq	%rdi, %r14
	leaq	_ZTVN2js4wasm6ModuleE+16(%rip), %rax
	movq	%rax, (%rdi)
	movq	176(%rdi), %rdi
	testq	%rdi, %rdi
	je	.LBB0_2
###SPA### trampoline_fmt_64
# %bb.1:
	movq	(%rdi), %rax
	callq	*24(%rax)
.LBB0_2:
###SPA## trampoline_fmt_64
	movq	168(%r14), %rbx
	testq	%rbx, %rbx
	je	.LBB0_7
###SPA### trampoline_fmt_64
# %bb.3:
	lock		subq	$1, (%rbx)
	jne	.LBB0_7
###SPA### trampoline_fmt_64
# %bb.4:
	movq	8(%rbx), %rdi
	cmpq	$1, %rdi
	je	.LBB0_6
###SPA### trampoline_fmt_64
# %bb.5:
	callq	free@PLT
.LBB0_6:
###SPA## trampoline_fmt_64
	movq	%rbx, %rdi
	callq	free@PLT
.LBB0_7:
###SPA## trampoline_fmt_64
	movq	160(%r14), %r15
	movq	$0, 160(%r14)
	testq	%r15, %r15
	je	.LBB0_15
###SPA### trampoline_fmt_64
# %bb.8:
	leaq	4144(%r15), %rbx
	movq	$-4144, %r12            # imm = 0xEFD0
	.p2align	4, 0x90
.LBB0_9:                                # =>This Inner Loop Header: Depth=1
###SPA## trampoline_fmt_64
	movq	-24(%rbx), %rdi
	cmpq	%rdi, %rbx
	je	.LBB0_11
###SPA### trampoline_fmt_64
# %bb.10:                               #   in Loop: Header=BB0_9 Depth=1
	callq	free@PLT
.LBB0_11:                               #   in Loop: Header=BB0_9 Depth=1
###SPA## trampoline_fmt_64
	addq	$-56, %rbx
	addq	$56, %r12
	jne	.LBB0_9
###SPA### trampoline_fmt_64
# %bb.12:
	movq	8(%r15), %rdi
	cmpq	$8, %rdi
	je	.LBB0_14
###SPA### trampoline_fmt_64
# %bb.13:
	callq	free@PLT
.LBB0_14:
###SPA## trampoline_fmt_64
	movq	%r15, %rdi
	callq	free@PLT
.LBB0_15:
###SPA## trampoline_fmt_64
	movq	152(%r14), %rbx
	movq	$0, 152(%r14)
	testq	%rbx, %rbx
	je	.LBB0_19
###SPA### trampoline_fmt_64
# %bb.16:
	movq	(%rbx), %rdi
	cmpq	$1, %rdi
	je	.LBB0_18
###SPA### trampoline_fmt_64
# %bb.17:
	callq	free@PLT
.LBB0_18:
###SPA## trampoline_fmt_64
	movq	%rbx, %rdi
	callq	free@PLT
.LBB0_19:
###SPA## trampoline_fmt_64
	movq	120(%r14), %rbx
	movq	128(%r14), %r12
	testq	%r12, %r12
	jle	.LBB0_30
###SPA### trampoline_fmt_64
# %bb.20:
	shlq	$5, %r12
	addq	%rbx, %r12
	.p2align	4, 0x90
.LBB0_21:                               # =>This Inner Loop Header: Depth=1
###SPA## trampoline_fmt_64
	movq	24(%rbx), %r15
	testq	%r15, %r15
	je	.LBB0_26
###SPA### trampoline_fmt_64
# %bb.22:                               #   in Loop: Header=BB0_21 Depth=1
	lock		subq	$1, (%r15)
	jne	.LBB0_26
###SPA### trampoline_fmt_64
# %bb.23:                               #   in Loop: Header=BB0_21 Depth=1
	movq	8(%r15), %rdi
	cmpq	$1, %rdi
	je	.LBB0_25
###SPA### trampoline_fmt_64
# %bb.24:                               #   in Loop: Header=BB0_21 Depth=1
	callq	free@PLT
.LBB0_25:                               #   in Loop: Header=BB0_21 Depth=1
###SPA## trampoline_fmt_64
	movq	%r15, %rdi
	callq	free@PLT
.LBB0_26:                               #   in Loop: Header=BB0_21 Depth=1
###SPA## trampoline_fmt_64
	movq	(%rbx), %rdi
	cmpq	$1, %rdi
	je	.LBB0_28
###SPA### trampoline_fmt_64
# %bb.27:                               #   in Loop: Header=BB0_21 Depth=1
	callq	free@PLT
.LBB0_28:                               #   in Loop: Header=BB0_21 Depth=1
###SPA## trampoline_fmt_64
	addq	$32, %rbx
	cmpq	%r12, %rbx
	jb	.LBB0_21
###SPA### trampoline_fmt_64
# %bb.29:
	movq	120(%r14), %rbx
.LBB0_30:
###SPA## trampoline_fmt_64
	cmpq	$32, %rbx
	je	.LBB0_32
###SPA### trampoline_fmt_64
# %bb.31:
	movq	%rbx, %rdi
	callq	free@PLT
.LBB0_32:
###SPA## trampoline_fmt_64
	movq	96(%r14), %rbx
	movq	104(%r14), %rax
	testq	%rax, %rax
	jle	.LBB0_41
###SPA### trampoline_fmt_64
# %bb.33:
	leaq	(%rbx,%rax,8), %r12
	.p2align	4, 0x90
.LBB0_34:                               # =>This Inner Loop Header: Depth=1
###SPA## trampoline_fmt_64
	movq	(%rbx), %r15
	testq	%r15, %r15
	je	.LBB0_39
###SPA### trampoline_fmt_64
# %bb.35:                               #   in Loop: Header=BB0_34 Depth=1
	lock		subq	$1, (%r15)
	jne	.LBB0_39
###SPA### trampoline_fmt_64
# %bb.36:                               #   in Loop: Header=BB0_34 Depth=1
	movq	64(%r15), %rdi
	leaq	88(%r15), %rax
	cmpq	%rax, %rdi
	je	.LBB0_38
###SPA### trampoline_fmt_64
# %bb.37:                               #   in Loop: Header=BB0_34 Depth=1
	callq	free@PLT
.LBB0_38:                               #   in Loop: Header=BB0_34 Depth=1
###SPA## trampoline_fmt_64
	movq	%r15, %rdi
	callq	free@PLT
.LBB0_39:                               #   in Loop: Header=BB0_34 Depth=1
###SPA## trampoline_fmt_64
	addq	$8, %rbx
	cmpq	%r12, %rbx
	jb	.LBB0_34
###SPA### trampoline_fmt_64
# %bb.40:
	movq	96(%r14), %rbx
.LBB0_41:
###SPA## trampoline_fmt_64
	cmpq	$8, %rbx
	je	.LBB0_43
###SPA### trampoline_fmt_64
# %bb.42:
	movq	%rbx, %rdi
	callq	free@PLT
.LBB0_43:
###SPA## trampoline_fmt_64
	movq	72(%r14), %rbx
	movq	80(%r14), %rax
	testq	%rax, %rax
	jle	.LBB0_52
###SPA### trampoline_fmt_64
# %bb.44:
	leaq	(%rbx,%rax,8), %r12
	.p2align	4, 0x90
.LBB0_45:                               # =>This Inner Loop Header: Depth=1
###SPA## trampoline_fmt_64
	movq	(%rbx), %r15
	testq	%r15, %r15
	je	.LBB0_50
###SPA### trampoline_fmt_64
# %bb.46:                               #   in Loop: Header=BB0_45 Depth=1
	lock		subq	$1, (%r15)
	jne	.LBB0_50
###SPA### trampoline_fmt_64
# %bb.47:                               #   in Loop: Header=BB0_45 Depth=1
	movq	48(%r15), %rdi
	cmpq	$1, %rdi
	je	.LBB0_49
###SPA### trampoline_fmt_64
# %bb.48:                               #   in Loop: Header=BB0_45 Depth=1
	callq	free@PLT
.LBB0_49:                               #   in Loop: Header=BB0_45 Depth=1
###SPA## trampoline_fmt_64
	movq	%r15, %rdi
	callq	free@PLT
.LBB0_50:                               #   in Loop: Header=BB0_45 Depth=1
###SPA## trampoline_fmt_64
	addq	$8, %rbx
	cmpq	%r12, %rbx
	jb	.LBB0_45
###SPA### trampoline_fmt_64
# %bb.51:
	movq	72(%r14), %rbx
.LBB0_52:
###SPA## trampoline_fmt_64
	cmpq	$8, %rbx
	je	.LBB0_54
###SPA### trampoline_fmt_64
# %bb.53:
	movq	%rbx, %rdi
	callq	free@PLT
.LBB0_54:
###SPA## trampoline_fmt_64
	movq	48(%r14), %rbx
	movq	56(%r14), %r15
	testq	%r15, %r15
	jle	.LBB0_60
###SPA### trampoline_fmt_64
# %bb.55:
	shlq	$4, %r15
	addq	%rbx, %r15
	.p2align	4, 0x90
.LBB0_56:                               # =>This Inner Loop Header: Depth=1
###SPA## trampoline_fmt_64
	movq	(%rbx), %rdi
	movq	$0, (%rbx)
	testq	%rdi, %rdi
	je	.LBB0_58
###SPA### trampoline_fmt_64
# %bb.57:                               #   in Loop: Header=BB0_56 Depth=1
	callq	free@PLT
.LBB0_58:                               #   in Loop: Header=BB0_56 Depth=1
###SPA## trampoline_fmt_64
	addq	$16, %rbx
	cmpq	%r15, %rbx
	jb	.LBB0_56
###SPA### trampoline_fmt_64
# %bb.59:
	movq	48(%r14), %rbx
.LBB0_60:
###SPA## trampoline_fmt_64
	cmpq	$16, %rbx
	je	.LBB0_62
###SPA### trampoline_fmt_64
# %bb.61:
	movq	%rbx, %rdi
	callq	free@PLT
.LBB0_62:
###SPA## trampoline_fmt_64
	movq	24(%r14), %rbx
	movq	32(%r14), %rax
	testq	%rax, %rax
	jle	.LBB0_70
###SPA### trampoline_fmt_64
# %bb.63:
	leaq	(%rax,%rax,2), %rax
	leaq	(%rbx,%rax,8), %r15
	.p2align	4, 0x90
.LBB0_64:                               # =>This Inner Loop Header: Depth=1
###SPA## trampoline_fmt_64
	movq	8(%rbx), %rdi
	movq	$0, 8(%rbx)
	testq	%rdi, %rdi
	je	.LBB0_66
###SPA### trampoline_fmt_64
# %bb.65:                               #   in Loop: Header=BB0_64 Depth=1
	callq	free@PLT
.LBB0_66:                               #   in Loop: Header=BB0_64 Depth=1
###SPA## trampoline_fmt_64
	movq	(%rbx), %rdi
	movq	$0, (%rbx)
	testq	%rdi, %rdi
	je	.LBB0_68
###SPA### trampoline_fmt_64
# %bb.67:                               #   in Loop: Header=BB0_64 Depth=1
	callq	free@PLT
.LBB0_68:                               #   in Loop: Header=BB0_64 Depth=1
###SPA## trampoline_fmt_64
	addq	$24, %rbx
	cmpq	%r15, %rbx
	jb	.LBB0_64
###SPA### trampoline_fmt_64
# %bb.69:
	movq	24(%r14), %rbx
.LBB0_70:
###SPA## trampoline_fmt_64
	cmpq	$24, %rbx
	je	.LBB0_72
###SPA### trampoline_fmt_64
# %bb.71:
	movq	%rbx, %rdi
	callq	free@PLT
.LBB0_72:
###SPA## trampoline_fmt_64
	movq	16(%r14), %rbx
	testq	%rbx, %rbx
	je	.LBB0_74
###SPA### trampoline_fmt_64
# %bb.73:
	lock		subq	$1, (%rbx)
	jne	.LBB0_74
###SPA### trampoline_fmt_64
# %bb.75:
	movq	%rbx, %rdi
	callq	_ZN2js4wasm4CodeD2Ev
	movq	%rbx, %rdi
	addq	$8, %rsp
	.cfi_def_cfa_offset 40
	popq	%rbx
	.cfi_def_cfa_offset 32
	popq	%r12
	.cfi_def_cfa_offset 24
	popq	%r14
	.cfi_def_cfa_offset 16
	popq	%r15
	.cfi_def_cfa_offset 8
	jmp	free@PLT                # TAILCALL
.LBB0_74:
	.cfi_def_cfa_offset 48
###SPA## trampoline_fmt_64
	addq	$8, %rsp
	.cfi_def_cfa_offset 40
	popq	%rbx
	.cfi_def_cfa_offset 32
	popq	%r12
	.cfi_def_cfa_offset 24
	popq	%r14
	.cfi_def_cfa_offset 16
	popq	%r15
	.cfi_def_cfa_offset 8
	movq	%gs:(8), %r11
	movq	(%rsp, %r11, 1), %r11
	subq	%gs:(16), %r11
	addq	$8, %rsp
	jmpq	*%r11
.Lfunc_end0:
	.size	_ZN2js4wasm6ModuleD2Ev, .Lfunc_end0-_ZN2js4wasm6ModuleD2Ev
	.cfi_endproc
                                        # -- End function
	.section	.text._ZN2js4wasm6ModuleD0Ev,"ax",@progbits
	.hidden	_ZN2js4wasm6ModuleD0Ev  # -- Begin function _ZN2js4wasm6ModuleD0Ev
	.globl	_ZN2js4wasm6ModuleD0Ev
	.p2align	4, 0x90
	.type	_ZN2js4wasm6ModuleD0Ev,@function
_ZN2js4wasm6ModuleD0Ev:                 # @_ZN2js4wasm6ModuleD0Ev
	.cfi_startproc
	movq	(%rsp), %r10
	addq	%gs:(16), %r10
	movq	%gs:(8), %r11
	movq	%r10, (%rsp, %r11, 1)
# %bb.0:
###SPA## trampoline_fmt_64
	pushq	%rbx
	.cfi_def_cfa_offset 16
	.cfi_offset %rbx, -16
	movq	%rdi, %rbx
	callq	_ZN2js4wasm6ModuleD2Ev
	movq	%rbx, %rdi
	popq	%rbx
	.cfi_def_cfa_offset 8
	jmp	_ZdlPv@PLT              # TAILCALL
.Lfunc_end1:
	.size	_ZN2js4wasm6ModuleD0Ev, .Lfunc_end1-_ZN2js4wasm6ModuleD0Ev
	.cfi_endproc
                                        # -- End function
	.section	.text._ZN2js4wasm6Module10startTier2ERKNS0_11CompileArgsERKNS0_14ShareableBytesEPN2JS25OptimizedEncodingListenerE,"ax",@progbits
	.hidden	_ZN2js4wasm6Module10startTier2ERKNS0_11CompileArgsERKNS0_14ShareableBytesEPN2JS25OptimizedEncodingListenerE # -- Begin function _ZN2js4wasm6Module10startTier2ERKNS0_11CompileArgsERKNS0_14ShareableBytesEPN2JS25OptimizedEncodingListenerE
	.globl	_ZN2js4wasm6Module10startTier2ERKNS0_11CompileArgsERKNS0_14ShareableBytesEPN2JS25OptimizedEncodingListenerE
	.p2align	4, 0x90
	.type	_ZN2js4wasm6Module10startTier2ERKNS0_11CompileArgsERKNS0_14ShareableBytesEPN2JS25OptimizedEncodingListenerE,@function
_ZN2js4wasm6Module10startTier2ERKNS0_11CompileArgsERKNS0_14ShareableBytesEPN2JS25OptimizedEncodingListenerE: # @_ZN2js4wasm6Module10startTier2ERKNS0_11CompileArgsERKNS0_14ShareableBytesEPN2JS25OptimizedEncodingListenerE
	.cfi_startproc
	movq	(%rsp), %r10
	addq	%gs:(16), %r10
	movq	%gs:(8), %r11
	movq	%r10, (%rsp, %r11, 1)
# %bb.0:
###SPA## trampoline_fmt_64
	pushq	%r15
	.cfi_def_cfa_offset 16
	pushq	%r14
	.cfi_def_cfa_offset 24
	pushq	%r13
	.cfi_def_cfa_offset 32
	pushq	%r12
	.cfi_def_cfa_offset 40
	pushq	%rbx
	.cfi_def_cfa_offset 48
	subq	$16, %rsp
	.cfi_def_cfa_offset 64
	.cfi_offset %rbx, -48
	.cfi_offset %r12, -40
	.cfi_offset %r13, -32
	.cfi_offset %r14, -24
	.cfi_offset %r15, -16
	movq	%rcx, %r15
	movq	%rdx, %r12
	movq	%rsi, %r13
	movq	%rdi, %r14
	movq	%fs:40, %rax
	movq	%rax, 8(%rsp)
	movq	_ZN2js11MallocArenaE(%rip), %rdi
	movl	$40, %esi
	callq	moz_arena_malloc@PLT
	testq	%rax, %rax
	je	.LBB2_8
###SPA### trampoline_fmt_64
# %bb.1:
	movq	%rax, %rbx
	leaq	_ZTVN2js4wasm6Module22Tier2GeneratorTaskImplE+16(%rip), %rax
	movq	%rax, (%rbx)
	movq	%r13, 8(%rbx)
	lock		addq	$1, (%r13)
	movq	%r12, 16(%rbx)
	lock		addq	$1, (%r12)
	movq	%r14, 24(%rbx)
	lock		addq	$1, 8(%r14)
	movl	$0, 32(%rbx)
	testq	%r15, %r15
	je	.LBB2_2
###SPA### trampoline_fmt_64
# %bb.3:
	movq	(%r15), %rax
	movq	%r15, %rdi
	callq	*16(%rax)
	movq	176(%r14), %rdi
	movq	%r15, 176(%r14)
	testq	%rdi, %rdi
	je	.LBB2_6
###SPA### trampoline_fmt_64
.LBB2_5:
###SPA## trampoline_fmt_64
	movq	(%rdi), %rax
	callq	*24(%rax)
.LBB2_6:
###SPA## trampoline_fmt_64
	movl	$1, %eax
	xchgl	%eax, 188(%r14)
	movq	%rbx, (%rsp)
	movq	%rsp, %rdi
	callq	_ZN2js32StartOffThreadWasmTier2GeneratorEN7mozilla9UniquePtrINS_4wasm18Tier2GeneratorTaskEN2JS12DeletePolicyIS3_EEEE
	movq	(%rsp), %rbx
	movq	$0, (%rsp)
	testq	%rbx, %rbx
	je	.LBB2_8
###SPA### trampoline_fmt_64
# %bb.7:
	movq	(%rbx), %rax
	movq	%rbx, %rdi
	callq	*16(%rax)
	movq	%rbx, %rdi
	callq	free@PLT
.LBB2_8:
###SPA## trampoline_fmt_64
	movq	%fs:40, %rax
	cmpq	8(%rsp), %rax
	jne	.LBB2_10
###SPA### trampoline_fmt_64
# %bb.9:
	addq	$16, %rsp
	.cfi_def_cfa_offset 48
	popq	%rbx
	.cfi_def_cfa_offset 40
	popq	%r12
	.cfi_def_cfa_offset 32
	popq	%r13
	.cfi_def_cfa_offset 24
	popq	%r14
	.cfi_def_cfa_offset 16
	popq	%r15
	.cfi_def_cfa_offset 8
	movq	%gs:(8), %r11
	movq	(%rsp, %r11, 1), %r11
	subq	%gs:(16), %r11
	addq	$8, %rsp
	jmpq	*%r11
.LBB2_2:
	.cfi_def_cfa_offset 64
###SPA## trampoline_fmt_64
	movq	176(%r14), %rdi
	movq	$0, 176(%r14)
	testq	%rdi, %rdi
	jne	.LBB2_5
###SPA### trampoline_fmt_64
	jmp	.LBB2_6
.LBB2_10:
###SPA## trampoline_fmt_64
	callq	__stack_chk_fail@PLT
.Lfunc_end2:
	.size	_ZN2js4wasm6Module10startTier2ERKNS0_11CompileArgsERKNS0_14ShareableBytesEPN2JS25OptimizedEncodingListenerE, .Lfunc_end2-_ZN2js4wasm6Module10startTier2ERKNS0_11CompileArgsERKNS0_14ShareableBytesEPN2JS25OptimizedEncodingListenerE
	.cfi_endproc
                                        # -- End function
	.section	.text._ZNK2js4wasm6Module11finishTier2ERKNS0_8LinkDataEN7mozilla9UniquePtrINS0_8CodeTierEN2JS12DeletePolicyIS7_EEEE,"ax",@progbits
	.hidden	_ZNK2js4wasm6Module11finishTier2ERKNS0_8LinkDataEN7mozilla9UniquePtrINS0_8CodeTierEN2JS12DeletePolicyIS7_EEEE # -- Begin function _ZNK2js4wasm6Module11finishTier2ERKNS0_8LinkDataEN7mozilla9UniquePtrINS0_8CodeTierEN2JS12DeletePolicyIS7_EEEE
	.globl	_ZNK2js4wasm6Module11finishTier2ERKNS0_8LinkDataEN7mozilla9UniquePtrINS0_8CodeTierEN2JS12DeletePolicyIS7_EEEE
	.p2align	4, 0x90
	.type	_ZNK2js4wasm6Module11finishTier2ERKNS0_8LinkDataEN7mozilla9UniquePtrINS0_8CodeTierEN2JS12DeletePolicyIS7_EEEE,@function
_ZNK2js4wasm6Module11finishTier2ERKNS0_8LinkDataEN7mozilla9UniquePtrINS0_8CodeTierEN2JS12DeletePolicyIS7_EEEE: # @_ZNK2js4wasm6Module11finishTier2ERKNS0_8LinkDataEN7mozilla9UniquePtrINS0_8CodeTierEN2JS12DeletePolicyIS7_EEEE
	.cfi_startproc
	movq	(%rsp), %r10
	addq	%gs:(16), %r10
	movq	%gs:(8), %r11
	movq	%r10, (%rsp, %r11, 1)
# %bb.0:
###SPA## trampoline_fmt_64
	pushq	%rbp
	.cfi_def_cfa_offset 16
	pushq	%r15
	.cfi_def_cfa_offset 24
	pushq	%r14
	.cfi_def_cfa_offset 32
	pushq	%r13
	.cfi_def_cfa_offset 40
	pushq	%r12
	.cfi_def_cfa_offset 48
	pushq	%rbx
	.cfi_def_cfa_offset 56
	subq	$120, %rsp
	.cfi_def_cfa_offset 176
	.cfi_offset %rbx, -56
	.cfi_offset %r12, -48
	.cfi_offset %r13, -40
	.cfi_offset %r14, -32
	.cfi_offset %r15, -24
	.cfi_offset %rbp, -16
	movq	%rsi, %r15
	movq	%rdi, %r14
	movq	%fs:40, %rax
	movq	%rax, 112(%rsp)
	movq	16(%rdi), %rdi
	movq	(%rdx), %rax
	movq	$0, (%rdx)
	movq	%rax, 32(%rsp)
	leaq	32(%rsp), %rsi
	movq	%r15, %rdx
	callq	_ZNK2js4wasm4Code8setTier2EN7mozilla9UniquePtrINS0_8CodeTierEN2JS12DeletePolicyIS4_EEEERKNS0_8LinkDataE
	movl	%eax, %ebx
	movq	32(%rsp), %rbp
	movq	$0, 32(%rsp)
	testq	%rbp, %rbp
	je	.LBB3_2
###SPA### trampoline_fmt_64
# %bb.1:
	movq	%rbp, %rdi
	callq	_ZN2js4wasm8CodeTierD2Ev
	movq	%rbp, %rdi
	callq	free@PLT
.LBB3_2:
###SPA## trampoline_fmt_64
	testb	%bl, %bl
	je	.LBB3_18
###SPA### trampoline_fmt_64
# %bb.3:
	movq	%r15, 24(%rsp)          # 8-byte Spill
	movq	16(%r14), %rdi
	xorl	%esi, %esi
	callq	_ZNK2js4wasm4Code8codeTierENS0_4TierE
	movq	8(%rax), %rbx
	movq	16(%r14), %rdi
	xorl	%esi, %esi
	callq	_ZNK2js4wasm4Code8codeTierENS0_4TierE
	movq	%rax, %rbp
	leaq	24(%rax), %rdi
	movq	%rdi, 16(%rsp)          # 8-byte Spill
	callq	_ZN7mozilla6detail9MutexImpl4lockEv@PLT
	movq	16(%r14), %rdi
	movl	$1, %esi
	callq	_ZNK2js4wasm4Code8codeTierENS0_4TierE
	movq	%rax, %r13
	leaq	24(%rax), %rdi
	movq	%rdi, 8(%rsp)           # 8-byte Spill
	callq	_ZN7mozilla6detail9MutexImpl4lockEv@PLT
	movl	$8, %eax
	movq	%rax, %xmm0
	pslldq	$8, %xmm0               # xmm0 = zero,zero,zero,zero,zero,zero,zero,zero,xmm0[0,1,2,3,4,5,6,7]
	movdqu	%xmm0, 64(%rsp)
	leaq	80(%rsp), %rax
	movq	%rax, 56(%rsp)
	cmpq	$0, 432(%rbx)
	je	.LBB3_12
###SPA### trampoline_fmt_64
# %bb.4:
	addq	$64, %rbp
	xorl	%r15d, %r15d
	movl	$184, %r12d
	.p2align	4, 0x90
.LBB3_5:                                # =>This Inner Loop Header: Depth=1
###SPA## trampoline_fmt_64
	movq	424(%rbx), %rax
	cmpb	$0, (%rax,%r12)
	jne	.LBB3_11
###SPA### trampoline_fmt_64
# %bb.6:                                #   in Loop: Header=BB3_5 Depth=1
	movl	-8(%rax,%r12), %esi
	movq	%rbp, %rdi
	callq	_ZNK2js4wasm12LazyStubTier7hasStubEj
	testb	%al, %al
	je	.LBB3_11
###SPA### trampoline_fmt_64
# %bb.7:                                #   in Loop: Header=BB3_5 Depth=1
	movq	64(%rsp), %rax
	cmpq	%rax, 72(%rsp)
	jne	.LBB3_10
###SPA### trampoline_fmt_64
# %bb.8:                                #   in Loop: Header=BB3_5 Depth=1
	movl	$1, %esi
	leaq	56(%rsp), %rdi
	callq	_ZN7mozilla6VectorIjLm8EN2js17SystemAllocPolicyEE13growStorageByEm
	testb	%al, %al
	je	.LBB3_34
###SPA### trampoline_fmt_64
# %bb.9:                                #   in Loop: Header=BB3_5 Depth=1
	movq	64(%rsp), %rax
.LBB3_10:                               #   in Loop: Header=BB3_5 Depth=1
###SPA## trampoline_fmt_64
	leaq	1(%rax), %rcx
	movq	%rcx, 64(%rsp)
	movq	56(%rsp), %rcx
	movl	%r15d, (%rcx,%rax,4)
	.p2align	4, 0x90
.LBB3_11:                               #   in Loop: Header=BB3_5 Depth=1
###SPA## trampoline_fmt_64
	addq	$1, %r15
	addq	$192, %r12
	cmpq	432(%rbx), %r15
	jb	.LBB3_5
###SPA### trampoline_fmt_64
.LBB3_12:
###SPA## trampoline_fmt_64
	movq	16(%r14), %rdi
	movl	$1, %esi
	callq	_ZNK2js4wasm4Code8codeTierENS0_4TierE
	movb	$0, 40(%rsp)
	movb	$0, 48(%rsp)
	addq	$64, %r13
	leaq	56(%rsp), %rsi
	leaq	40(%rsp), %rcx
	movq	%r13, %rdi
	movq	%rax, %rdx
	callq	_ZN2js4wasm12LazyStubTier11createTier2ERKN7mozilla6VectorIjLm8ENS_17SystemAllocPolicyEEERKNS0_8CodeTierEPNS2_5MaybeImEE
	testb	%al, %al
	movl	$1, %r12d
	je	.LBB3_14
###SPA### trampoline_fmt_64
# %bb.13:
	movq	16(%r14), %rdi
	callq	_ZNK2js4wasm4Code11commitTier2Ev
	movq	16(%r14), %rdx
	leaq	40(%rsp), %rsi
	movq	%r13, %rdi
	callq	_ZN2js4wasm12LazyStubTier13setJitEntriesERKN7mozilla5MaybeImEERKNS0_4CodeE
	xorl	%r12d, %r12d
.LBB3_14:
###SPA## trampoline_fmt_64
	movq	24(%rsp), %r15          # 8-byte Reload
	movq	16(%rsp), %rbx          # 8-byte Reload
	movq	8(%rsp), %rbp           # 8-byte Reload
	leaq	80(%rsp), %rax
	movq	56(%rsp), %rdi
	cmpq	%rax, %rdi
	je	.LBB3_16
###SPA### trampoline_fmt_64
# %bb.15:
	callq	free@PLT
.LBB3_16:
###SPA## trampoline_fmt_64
	movq	%rbp, %rdi
	callq	_ZN7mozilla6detail9MutexImpl6unlockEv@PLT
	movq	%rbx, %rdi
	callq	_ZN7mozilla6detail9MutexImpl6unlockEv@PLT
	testl	%r12d, %r12d
	je	.LBB3_20
###SPA### trampoline_fmt_64
.LBB3_18:
###SPA## trampoline_fmt_64
	xorl	%eax, %eax
	movq	%fs:40, %rcx
	cmpq	112(%rsp), %rcx
	jne	.LBB3_33
###SPA### trampoline_fmt_64
.LBB3_19:
                                        # kill: def $al killed $al killed $eax
###SPA## trampoline_fmt_64
	addq	$120, %rsp
	.cfi_def_cfa_offset 56
	popq	%rbx
	.cfi_def_cfa_offset 48
	popq	%r12
	.cfi_def_cfa_offset 40
	popq	%r13
	.cfi_def_cfa_offset 32
	popq	%r14
	.cfi_def_cfa_offset 24
	popq	%r15
	.cfi_def_cfa_offset 16
	popq	%rbp
	.cfi_def_cfa_offset 8
	movq	%gs:(8), %r11
	movq	(%rsp, %r11, 1), %r11
	subq	%gs:(16), %r11
	addq	$8, %rsp
	jmpq	*%r11
.LBB3_20:
	.cfi_def_cfa_offset 176
###SPA## trampoline_fmt_64
	movq	16(%r14), %rdi
	movl	$1, %esi
	callq	_ZNK2js4wasm4Code8codeTierENS0_4TierE
	movq	16(%rax), %rax
	movq	(%rax), %rbp
	movq	16(%r14), %rdi
	movl	$1, %esi
	callq	_ZNK2js4wasm4Code8codeTierENS0_4TierE
	movq	8(%rax), %rax
	movq	72(%rax), %rdx
	testq	%rdx, %rdx
	je	.LBB3_29
###SPA### trampoline_fmt_64
# %bb.21:
	movq	64(%rax), %rax
	leaq	(%rdx,%rdx,8), %rcx
	leaq	(%rcx,%rcx,2), %rcx
	addq	%rdx, %rcx
	xorl	%edx, %edx
	.p2align	4, 0x90
.LBB3_22:                               # =>This Inner Loop Header: Depth=1
###SPA## trampoline_fmt_64
	movzbl	24(%rax,%rdx), %ebx
	cmpb	$2, %bl
	je	.LBB3_26
###SPA### trampoline_fmt_64
# %bb.23:                               #   in Loop: Header=BB3_22 Depth=1
	testb	%bl, %bl
	jne	.LBB3_28
###SPA### trampoline_fmt_64
# %bb.24:                               #   in Loop: Header=BB3_22 Depth=1
	movq	16(%r14), %rsi
	cmpl	$1, 104(%rsi)
	jne	.LBB3_28
###SPA### trampoline_fmt_64
# %bb.25:                               #   in Loop: Header=BB3_22 Depth=1
	movzbl	21(%rax,%rdx), %edi
	addl	(%rax,%rdx), %edi
	addq	%rbp, %rdi
	movl	12(%rax,%rdx), %ebx
	movq	112(%rsi), %rsi
	jmp	.LBB3_27
	.p2align	4, 0x90
.LBB3_26:                               #   in Loop: Header=BB3_22 Depth=1
###SPA## trampoline_fmt_64
	movq	16(%r14), %rsi
	movl	(%rax,%rdx), %edi
	movl	12(%rax,%rdx), %ebx
	addq	%rbp, %rdi
	movq	120(%rsi), %rsi
.LBB3_27:                               #   in Loop: Header=BB3_22 Depth=1
###SPA## trampoline_fmt_64
	movq	%rdi, (%rsi,%rbx,8)
.LBB3_28:                               #   in Loop: Header=BB3_22 Depth=1
###SPA## trampoline_fmt_64
	addq	$28, %rdx
	cmpq	%rdx, %rcx
	jne	.LBB3_22
###SPA### trampoline_fmt_64
.LBB3_29:
###SPA## trampoline_fmt_64
	movq	176(%r14), %rdx
	testq	%rdx, %rdx
	je	.LBB3_32
###SPA### trampoline_fmt_64
# %bb.30:
	movq	%r14, %rdi
	movq	%r15, %rsi
	callq	_ZNK2js4wasm6Module9serializeERKNS0_8LinkDataERN2JS25OptimizedEncodingListenerE
	movq	176(%r14), %rdi
	movq	$0, 176(%r14)
	testq	%rdi, %rdi
	je	.LBB3_32
###SPA### trampoline_fmt_64
# %bb.31:
	movq	(%rdi), %rax
	callq	*24(%rax)
.LBB3_32:
###SPA## trampoline_fmt_64
	xorl	%eax, %eax
	xchgl	%eax, 188(%r14)
	movb	$1, %al
	movq	%fs:40, %rcx
	cmpq	112(%rsp), %rcx
	je	.LBB3_19
###SPA### trampoline_fmt_64
.LBB3_33:
###SPA## trampoline_fmt_64
	callq	__stack_chk_fail@PLT
.LBB3_34:
###SPA## trampoline_fmt_64
	movl	$1, %r12d
	jmp	.LBB3_14
.Lfunc_end3:
	.size	_ZNK2js4wasm6Module11finishTier2ERKNS0_8LinkDataEN7mozilla9UniquePtrINS0_8CodeTierEN2JS12DeletePolicyIS7_EEEE, .Lfunc_end3-_ZNK2js4wasm6Module11finishTier2ERKNS0_8LinkDataEN7mozilla9UniquePtrINS0_8CodeTierEN2JS12DeletePolicyIS7_EEEE
	.cfi_endproc
                                        # -- End function
	.section	.text._ZNK2js4wasm6Module9serializeERKNS0_8LinkDataERN2JS25OptimizedEncodingListenerE,"ax",@progbits
	.hidden	_ZNK2js4wasm6Module9serializeERKNS0_8LinkDataERN2JS25OptimizedEncodingListenerE # -- Begin function _ZNK2js4wasm6Module9serializeERKNS0_8LinkDataERN2JS25OptimizedEncodingListenerE
	.globl	_ZNK2js4wasm6Module9serializeERKNS0_8LinkDataERN2JS25OptimizedEncodingListenerE
	.p2align	4, 0x90
	.type	_ZNK2js4wasm6Module9serializeERKNS0_8LinkDataERN2JS25OptimizedEncodingListenerE,@function
_ZNK2js4wasm6Module9serializeERKNS0_8LinkDataERN2JS25OptimizedEncodingListenerE: # @_ZNK2js4wasm6Module9serializeERKNS0_8LinkDataERN2JS25OptimizedEncodingListenerE
	.cfi_startproc
	movq	(%rsp), %r10
	addq	%gs:(16), %r10
	movq	%gs:(8), %r11
	movq	%r10, (%rsp, %r11, 1)
# %bb.0:
###SPA## trampoline_fmt_64
	pushq	%rbp
	.cfi_def_cfa_offset 16
	pushq	%r15
	.cfi_def_cfa_offset 24
	pushq	%r14
	.cfi_def_cfa_offset 32
	pushq	%r13
	.cfi_def_cfa_offset 40
	pushq	%r12
	.cfi_def_cfa_offset 48
	pushq	%rbx
	.cfi_def_cfa_offset 56
	subq	$24, %rsp
	.cfi_def_cfa_offset 80
	.cfi_offset %rbx, -56
	.cfi_offset %r12, -48
	.cfi_offset %r13, -40
	.cfi_offset %r14, -32
	.cfi_offset %r15, -24
	.cfi_offset %rbp, -16
	movq	%rdx, %r14
	movq	%rsi, %r15
	movq	%rdi, %r12
	movq	%fs:40, %rax
	movq	%rax, 16(%rsp)
	movq	_ZN2js11MallocArenaE(%rip), %rdi
	movl	$24, %esi
	callq	moz_arena_malloc@PLT
	testq	%rax, %rax
	je	.LBB4_11
###SPA### trampoline_fmt_64
# %bb.1:
	movq	%rax, %r13
	movq	%rax, %rbx
	xorps	%xmm0, %xmm0
	movups	%xmm0, 8(%r13)
	movq	$1, (%r13)
	movq	%r12, %rdi
	movq	%r15, %rsi
	callq	_ZNK2js4wasm6Module14serializedSizeERKNS0_8LinkDataE
	movq	8(%r13), %rcx
	movq	%rax, %rbp
	subq	%rcx, %rbp
	jbe	.LBB4_7
###SPA### trampoline_fmt_64
# %bb.2:
	movq	16(%rbx), %rax
	subq	%rcx, %rax
	cmpq	%rbp, %rax
	jae	.LBB4_4
###SPA### trampoline_fmt_64
# %bb.3:
	movq	%rbx, %rdi
	movq	%rbp, %rsi
	callq	_ZN7mozilla6VectorIhLm0EN2js17SystemAllocPolicyEE13growStorageByEm
	testb	%al, %al
	je	.LBB4_8
###SPA### trampoline_fmt_64
.LBB4_4:
###SPA## trampoline_fmt_64
	addq	$8, %r13
	testq	%rbp, %rbp
	jle	.LBB4_6
###SPA### trampoline_fmt_64
# %bb.5:
	movq	(%rbx), %rdi
	addq	8(%rbx), %rdi
	xorl	%esi, %esi
	movq	%rbp, %rdx
	callq	memset@PLT
.LBB4_6:
###SPA## trampoline_fmt_64
	addq	(%r13), %rbp
	movq	%rbp, %rax
.LBB4_7:
###SPA## trampoline_fmt_64
	movq	%rax, 8(%rbx)
	movq	(%rbx), %rdx
	movq	%r12, %rdi
	movq	%r15, %rsi
	movq	%rax, %rcx
	callq	_ZNK2js4wasm6Module9serializeERKNS0_8LinkDataEPhm
	movq	%rbx, 8(%rsp)
	movq	(%r14), %rax
	leaq	8(%rsp), %rsi
	movq	%r14, %rdi
	callq	*32(%rax)
	movq	8(%rsp), %rbx
	movq	$0, 8(%rsp)
	testq	%rbx, %rbx
	je	.LBB4_11
###SPA### trampoline_fmt_64
.LBB4_8:
###SPA## trampoline_fmt_64
	movq	(%rbx), %rdi
	cmpq	$1, %rdi
	je	.LBB4_10
###SPA### trampoline_fmt_64
# %bb.9:
	callq	free@PLT
.LBB4_10:
###SPA## trampoline_fmt_64
	movq	%rbx, %rdi
	callq	free@PLT
.LBB4_11:
###SPA## trampoline_fmt_64
	movq	%fs:40, %rax
	cmpq	16(%rsp), %rax
	jne	.LBB4_13
###SPA### trampoline_fmt_64
# %bb.12:
	addq	$24, %rsp
	.cfi_def_cfa_offset 56
	popq	%rbx
	.cfi_def_cfa_offset 48
	popq	%r12
	.cfi_def_cfa_offset 40
	popq	%r13
	.cfi_def_cfa_offset 32
	popq	%r14
	.cfi_def_cfa_offset 24
	popq	%r15
	.cfi_def_cfa_offset 16
	popq	%rbp
	.cfi_def_cfa_offset 8
	movq	%gs:(8), %r11
	movq	(%rsp, %r11, 1), %r11
	subq	%gs:(16), %r11
	addq	$8, %rsp
	jmpq	*%r11
.LBB4_13:
	.cfi_def_cfa_offset 80
###SPA## trampoline_fmt_64
	callq	__stack_chk_fail@PLT
.Lfunc_end4:
	.size	_ZNK2js4wasm6Module9serializeERKNS0_8LinkDataERN2JS25OptimizedEncodingListenerE, .Lfunc_end4-_ZNK2js4wasm6Module9serializeERKNS0_8LinkDataERN2JS25OptimizedEncodingListenerE
	.cfi_endproc
                                        # -- End function
	.section	.text._ZNK2js4wasm6Module27testingBlockOnTier2CompleteEv,"ax",@progbits
	.hidden	_ZNK2js4wasm6Module27testingBlockOnTier2CompleteEv # -- Begin function _ZNK2js4wasm6Module27testingBlockOnTier2CompleteEv
	.globl	_ZNK2js4wasm6Module27testingBlockOnTier2CompleteEv
	.p2align	4, 0x90
	.type	_ZNK2js4wasm6Module27testingBlockOnTier2CompleteEv,@function
_ZNK2js4wasm6Module27testingBlockOnTier2CompleteEv: # @_ZNK2js4wasm6Module27testingBlockOnTier2CompleteEv
	.cfi_startproc
	movq	(%rsp), %r10
	addq	%gs:(16), %r10
	movq	%gs:(8), %r11
	movq	%r10, (%rsp, %r11, 1)
# %bb.0:
###SPA## trampoline_fmt_64
	pushq	%r14
	.cfi_def_cfa_offset 16
	pushq	%rbx
	.cfi_def_cfa_offset 24
	subq	$40, %rsp
	.cfi_def_cfa_offset 64
	.cfi_offset %rbx, -24
	.cfi_offset %r14, -16
	movq	%fs:40, %rax
	movq	%rax, 32(%rsp)
	movl	188(%rdi), %eax
	testl	%eax, %eax
	je	.LBB5_6
###SPA### trampoline_fmt_64
# %bb.1:
	movq	%rdi, %r14
	movl	$1000000, %eax          # imm = 0xF4240
	movq	%rax, %xmm0
	pslldq	$8, %xmm0               # xmm0 = zero,zero,zero,zero,zero,zero,zero,zero,xmm0[0,1,2,3,4,5,6,7]
	movdqa	%xmm0, (%rsp)           # 16-byte Spill
	leaq	16(%rsp), %rbx
	.p2align	4, 0x90
.LBB5_2:                                # =>This Loop Header: Depth=1
                                        #     Child Loop BB5_3 Depth 2
###SPA## trampoline_fmt_64
	movdqa	(%rsp), %xmm0           # 16-byte Reload
	movdqa	%xmm0, 16(%rsp)
	.p2align	4, 0x90
.LBB5_3:                                #   Parent Loop BB5_2 Depth=1
                                        # =>  This Inner Loop Header: Depth=2
###SPA## trampoline_fmt_64
	movq	%rbx, %rdi
	movq	%rbx, %rsi
	callq	nanosleep@PLT
	cmpl	$-1, %eax
	jne	.LBB5_5
###SPA### trampoline_fmt_64
# %bb.4:                                #   in Loop: Header=BB5_3 Depth=2
	callq	__errno_location@PLT
	cmpl	$4, (%rax)
	je	.LBB5_3
###SPA### trampoline_fmt_64
.LBB5_5:                                #   in Loop: Header=BB5_2 Depth=1
###SPA## trampoline_fmt_64
	movl	188(%r14), %eax
	testl	%eax, %eax
	jne	.LBB5_2
###SPA### trampoline_fmt_64
.LBB5_6:
###SPA## trampoline_fmt_64
	movq	%fs:40, %rax
	cmpq	32(%rsp), %rax
	jne	.LBB5_8
###SPA### trampoline_fmt_64
# %bb.7:
	addq	$40, %rsp
	.cfi_def_cfa_offset 24
	popq	%rbx
	.cfi_def_cfa_offset 16
	popq	%r14
	.cfi_def_cfa_offset 8
	movq	%gs:(8), %r11
	movq	(%rsp, %r11, 1), %r11
	subq	%gs:(16), %r11
	addq	$8, %rsp
	jmpq	*%r11
.LBB5_8:
	.cfi_def_cfa_offset 64
###SPA## trampoline_fmt_64
	callq	__stack_chk_fail@PLT
.Lfunc_end5:
	.size	_ZNK2js4wasm6Module27testingBlockOnTier2CompleteEv, .Lfunc_end5-_ZNK2js4wasm6Module27testingBlockOnTier2CompleteEv
	.cfi_endproc
                                        # -- End function
	.section	.text._ZNK2js4wasm6Module14serializedSizeERKNS0_8LinkDataE,"ax",@progbits
	.hidden	_ZNK2js4wasm6Module14serializedSizeERKNS0_8LinkDataE # -- Begin function _ZNK2js4wasm6Module14serializedSizeERKNS0_8LinkDataE
	.globl	_ZNK2js4wasm6Module14serializedSizeERKNS0_8LinkDataE
	.p2align	4, 0x90
	.type	_ZNK2js4wasm6Module14serializedSizeERKNS0_8LinkDataE,@function
_ZNK2js4wasm6Module14serializedSizeERKNS0_8LinkDataE: # @_ZNK2js4wasm6Module14serializedSizeERKNS0_8LinkDataE
	.cfi_startproc
	movq	(%rsp), %r10
	addq	%gs:(16), %r10
	movq	%gs:(8), %r11
	movq	%r10, (%rsp, %r11, 1)
# %bb.0:
###SPA## trampoline_fmt_64
	pushq	%rbp
	.cfi_def_cfa_offset 16
	pushq	%r15
	.cfi_def_cfa_offset 24
	pushq	%r14
	.cfi_def_cfa_offset 32
	pushq	%r13
	.cfi_def_cfa_offset 40
	pushq	%r12
	.cfi_def_cfa_offset 48
	pushq	%rbx
	.cfi_def_cfa_offset 56
	subq	$72, %rsp
	.cfi_def_cfa_offset 128
	.cfi_offset %rbx, -56
	.cfi_offset %r12, -48
	.cfi_offset %r13, -40
	.cfi_offset %r14, -32
	.cfi_offset %r15, -24
	.cfi_offset %rbp, -16
	movq	%rsi, %r14
	movq	%rdi, %r13
	movq	%fs:40, %rax
	movq	%rax, 64(%rsp)
	xorps	%xmm0, %xmm0
	movups	%xmm0, 48(%rsp)
	movq	$1, 40(%rsp)
	leaq	40(%rsp), %rdi
	callq	_ZN2js4wasm27GetOptimizedEncodingBuildIdEPN7mozilla6VectorIcLm0ENS_17SystemAllocPolicyEEE
	testb	%al, %al
	je	.LBB6_25
###SPA### trampoline_fmt_64
# %bb.1:
	movq	48(%rsp), %rax
	movq	%rax, 24(%rsp)          # 8-byte Spill
	movq	%r14, %rdi
	callq	_ZNK2js4wasm8LinkData14serializedSizeEv
	movq	%rax, 16(%rsp)          # 8-byte Spill
	cmpq	$0, 32(%r13)
	je	.LBB6_2
###SPA### trampoline_fmt_64
# %bb.3:
	movl	$4, %r14d
	xorl	%ebp, %ebp
	xorl	%ebx, %ebx
	.p2align	4, 0x90
.LBB6_4:                                # =>This Inner Loop Header: Depth=1
###SPA## trampoline_fmt_64
	movq	24(%r13), %rdi
	addq	%rbp, %rdi
	callq	_ZNK2js4wasm6Import14serializedSizeEv
	addq	%rax, %r14
	addq	$1, %rbx
	addq	$24, %rbp
	cmpq	32(%r13), %rbx
	jb	.LBB6_4
###SPA### trampoline_fmt_64
# %bb.5:
	cmpq	$0, 56(%r13)
	je	.LBB6_6
###SPA### trampoline_fmt_64
.LBB6_7:
###SPA## trampoline_fmt_64
	movl	$4, %r15d
	xorl	%ebp, %ebp
	xorl	%ebx, %ebx
	.p2align	4, 0x90
.LBB6_8:                                # =>This Inner Loop Header: Depth=1
###SPA## trampoline_fmt_64
	movq	48(%r13), %rdi
	addq	%rbp, %rdi
	callq	_ZNK2js4wasm6Export14serializedSizeEv
	addq	%rax, %r15
	addq	$1, %rbx
	addq	$16, %rbp
	cmpq	56(%r13), %rbx
	jb	.LBB6_8
###SPA### trampoline_fmt_64
# %bb.9:
	cmpq	$0, 80(%r13)
	je	.LBB6_10
###SPA### trampoline_fmt_64
.LBB6_11:
###SPA## trampoline_fmt_64
	movl	$4, %ebp
	xorl	%ebx, %ebx
	.p2align	4, 0x90
.LBB6_12:                               # =>This Inner Loop Header: Depth=1
###SPA## trampoline_fmt_64
	movq	72(%r13), %rax
	movq	(%rax,%rbx,8), %rdi
	callq	_ZNK2js4wasm11DataSegment14serializedSizeEv
	addq	%rax, %rbp
	addq	$1, %rbx
	cmpq	80(%r13), %rbx
	jb	.LBB6_12
###SPA### trampoline_fmt_64
# %bb.13:
	movq	%r15, (%rsp)            # 8-byte Spill
	cmpq	$0, 104(%r13)
	je	.LBB6_14
###SPA### trampoline_fmt_64
.LBB6_15:
###SPA## trampoline_fmt_64
	movl	$4, %r15d
	xorl	%ebx, %ebx
	.p2align	4, 0x90
.LBB6_16:                               # =>This Inner Loop Header: Depth=1
###SPA## trampoline_fmt_64
	movq	96(%r13), %rax
	movq	(%rax,%rbx,8), %rdi
	callq	_ZNK2js4wasm11ElemSegment14serializedSizeEv
	addq	%rax, %r15
	addq	$1, %rbx
	cmpq	104(%r13), %rbx
	jb	.LBB6_16
###SPA### trampoline_fmt_64
# %bb.17:
	movq	%r14, 8(%rsp)           # 8-byte Spill
	cmpq	$0, 128(%r13)
	je	.LBB6_18
###SPA### trampoline_fmt_64
.LBB6_19:
###SPA## trampoline_fmt_64
	movl	$4, %r14d
	xorl	%r12d, %r12d
	xorl	%ebx, %ebx
	.p2align	4, 0x90
.LBB6_20:                               # =>This Inner Loop Header: Depth=1
###SPA## trampoline_fmt_64
	movq	120(%r13), %rdi
	addq	%r12, %rdi
	callq	_ZNK2js4wasm13CustomSection14serializedSizeEv
	addq	%rax, %r14
	addq	$1, %rbx
	addq	$32, %r12
	cmpq	128(%r13), %rbx
	jb	.LBB6_20
###SPA### trampoline_fmt_64
	jmp	.LBB6_21
.LBB6_2:
###SPA## trampoline_fmt_64
	movl	$4, %r14d
	cmpq	$0, 56(%r13)
	jne	.LBB6_7
###SPA### trampoline_fmt_64
.LBB6_6:
###SPA## trampoline_fmt_64
	movl	$4, %r15d
	cmpq	$0, 80(%r13)
	jne	.LBB6_11
###SPA### trampoline_fmt_64
.LBB6_10:
###SPA## trampoline_fmt_64
	movl	$4, %ebp
	movq	%r15, (%rsp)            # 8-byte Spill
	cmpq	$0, 104(%r13)
	jne	.LBB6_15
###SPA### trampoline_fmt_64
.LBB6_14:
###SPA## trampoline_fmt_64
	movl	$4, %r15d
	movq	%r14, 8(%rsp)           # 8-byte Spill
	cmpq	$0, 128(%r13)
	jne	.LBB6_19
###SPA### trampoline_fmt_64
.LBB6_18:
###SPA## trampoline_fmt_64
	movl	$4, %r14d
.LBB6_21:
###SPA## trampoline_fmt_64
	movq	16(%r13), %rdi
	callq	_ZNK2js4wasm4Code14serializedSizeEv
	movq	%rax, %r12
	movq	40(%rsp), %rdi
	cmpq	$1, %rdi
	je	.LBB6_23
###SPA### trampoline_fmt_64
# %bb.22:
	callq	free@PLT
.LBB6_23:
###SPA## trampoline_fmt_64
	movq	%fs:40, %rax
	cmpq	64(%rsp), %rax
	jne	.LBB6_24
###SPA### trampoline_fmt_64
# %bb.26:
	movq	24(%rsp), %rax          # 8-byte Reload
	movq	16(%rsp), %rcx          # 8-byte Reload
	addq	%rcx, %rax
	addq	$4, %rax
	addq	8(%rsp), %rax           # 8-byte Folded Reload
	addq	(%rsp), %rax            # 8-byte Folded Reload
	addq	%rbp, %rax
	addq	%r15, %rax
	addq	%r14, %rax
	addq	%r12, %rax
	addq	$72, %rsp
	.cfi_def_cfa_offset 56
	popq	%rbx
	.cfi_def_cfa_offset 48
	popq	%r12
	.cfi_def_cfa_offset 40
	popq	%r13
	.cfi_def_cfa_offset 32
	popq	%r14
	.cfi_def_cfa_offset 24
	popq	%r15
	.cfi_def_cfa_offset 16
	popq	%rbp
	.cfi_def_cfa_offset 8
	movq	%gs:(8), %r11
	movq	(%rsp, %r11, 1), %r11
	subq	%gs:(16), %r11
	addq	$8, %rsp
	jmpq	*%r11
.LBB6_25:
	.cfi_def_cfa_offset 128
###SPA## trampoline_fmt_64
	leaq	.L.str(%rip), %rsi
	leaq	32(%rsp), %rdi
	callq	_ZN2js24AutoEnterOOMUnsafeRegion5crashEPKc
.LBB6_24:
###SPA## trampoline_fmt_64
	callq	__stack_chk_fail@PLT
.Lfunc_end6:
	.size	_ZNK2js4wasm6Module14serializedSizeERKNS0_8LinkDataE, .Lfunc_end6-_ZNK2js4wasm6Module14serializedSizeERKNS0_8LinkDataE
	.cfi_endproc
                                        # -- End function
	.section	.text._ZN2js4wasm27GetOptimizedEncodingBuildIdEPN7mozilla6VectorIcLm0ENS_17SystemAllocPolicyEEE,"ax",@progbits
	.hidden	_ZN2js4wasm27GetOptimizedEncodingBuildIdEPN7mozilla6VectorIcLm0ENS_17SystemAllocPolicyEEE # -- Begin function _ZN2js4wasm27GetOptimizedEncodingBuildIdEPN7mozilla6VectorIcLm0ENS_17SystemAllocPolicyEEE
	.globl	_ZN2js4wasm27GetOptimizedEncodingBuildIdEPN7mozilla6VectorIcLm0ENS_17SystemAllocPolicyEEE
	.p2align	4, 0x90
	.type	_ZN2js4wasm27GetOptimizedEncodingBuildIdEPN7mozilla6VectorIcLm0ENS_17SystemAllocPolicyEEE,@function
_ZN2js4wasm27GetOptimizedEncodingBuildIdEPN7mozilla6VectorIcLm0ENS_17SystemAllocPolicyEEE: # @_ZN2js4wasm27GetOptimizedEncodingBuildIdEPN7mozilla6VectorIcLm0ENS_17SystemAllocPolicyEEE
	.cfi_startproc
	movq	(%rsp), %r10
	addq	%gs:(16), %r10
	movq	%gs:(8), %r11
	movq	%r10, (%rsp, %r11, 1)
# %bb.0:
###SPA## trampoline_fmt_64
	pushq	%rbp
	.cfi_def_cfa_offset 16
	pushq	%r14
	.cfi_def_cfa_offset 24
	pushq	%rbx
	.cfi_def_cfa_offset 32
	.cfi_offset %rbx, -32
	.cfi_offset %r14, -24
	.cfi_offset %rbp, -16
	movq	_ZN2js10GetBuildIdE(%rip), %rax
	testq	%rax, %rax
	je	.LBB7_1
###SPA### trampoline_fmt_64
# %bb.2:
	movq	%rdi, %rbx
	movq	_ZN2js10GetBuildIdE(%rip), %rax
	callq	*%rax
	testb	%al, %al
	je	.LBB7_3
###SPA### trampoline_fmt_64
# %bb.4:
	callq	_ZN2js4wasm19ObservedCPUFeaturesEv
	movl	%eax, %ebp
	movq	8(%rbx), %rax
	leaq	12(%rax), %rcx
	cmpq	%rcx, 16(%rbx)
	jae	.LBB7_8
###SPA### trampoline_fmt_64
# %bb.5:
	movl	$12, %esi
	movq	%rbx, %rdi
	callq	_ZN7mozilla6VectorIcLm0EN2js17SystemAllocPolicyEE13growStorageByEm
	testb	%al, %al
	je	.LBB7_6
###SPA### trampoline_fmt_64
# %bb.7:
	movq	8(%rbx), %rax
.LBB7_8:
###SPA## trampoline_fmt_64
	movq	(%rbx), %rcx
	movb	$40, (%rcx,%rax)
	movq	8(%rbx), %rax
	addq	$1, %rax
	movq	%rax, 8(%rbx)
	addq	(%rbx), %rax
	testl	%ebp, %ebp
	je	.LBB7_11
###SPA### trampoline_fmt_64
	.p2align	4, 0x90
.LBB7_9:                                # =>This Inner Loop Header: Depth=1
###SPA## trampoline_fmt_64
	movl	%ebp, %ecx
	andb	$15, %cl
	orb	$48, %cl
	movb	%cl, (%rax)
	movq	8(%rbx), %rax
	addq	$1, %rax
	movq	%rax, 8(%rbx)
	shrl	$4, %ebp
	addq	(%rbx), %rax
	testl	%ebp, %ebp
	jne	.LBB7_9
###SPA### trampoline_fmt_64
.LBB7_11:
###SPA## trampoline_fmt_64
	movb	$41, (%rax)
	movq	(%rbx), %rax
	movq	8(%rbx), %rcx
	leaq	1(%rcx), %rdx
	movq	%rdx, 8(%rbx)
	movb	$109, 1(%rax,%rcx)
	addq	$1, 8(%rbx)
	movb	_ZGVZN2js4wasm19IsHugeMemoryEnabledEvE7enabled(%rip), %al
	testb	%al, %al
	je	.LBB7_12
###SPA### trampoline_fmt_64
.LBB7_14:
###SPA## trampoline_fmt_64
	cmpb	$0, _ZZN2js4wasm19IsHugeMemoryEnabledEvE7enabled(%rip)
	sete	%al
	addb	%al, %al
	addb	$43, %al
	movq	(%rbx), %rcx
	movq	8(%rbx), %rdx
	movb	%al, (%rcx,%rdx)
	addq	$1, 8(%rbx)
	movb	$1, %al
                                        # kill: def $al killed $al killed $eax
	popq	%rbx
	.cfi_def_cfa_offset 24
	popq	%r14
	.cfi_def_cfa_offset 16
	popq	%rbp
	.cfi_def_cfa_offset 8
	movq	%gs:(8), %r11
	movq	(%rsp, %r11, 1), %r11
	subq	%gs:(16), %r11
	addq	$8, %rsp
	jmpq	*%r11
.LBB7_1:
	.cfi_def_cfa_offset 32
###SPA## trampoline_fmt_64
	xorl	%eax, %eax
                                        # kill: def $al killed $al killed $eax
	popq	%rbx
	.cfi_def_cfa_offset 24
	popq	%r14
	.cfi_def_cfa_offset 16
	popq	%rbp
	.cfi_def_cfa_offset 8
	movq	%gs:(8), %r11
	movq	(%rsp, %r11, 1), %r11
	subq	%gs:(16), %r11
	addq	$8, %rsp
	jmpq	*%r11
.LBB7_3:
	.cfi_def_cfa_offset 32
###SPA## trampoline_fmt_64
	xorl	%eax, %eax
                                        # kill: def $al killed $al killed $eax
	popq	%rbx
	.cfi_def_cfa_offset 24
	popq	%r14
	.cfi_def_cfa_offset 16
	popq	%rbp
	.cfi_def_cfa_offset 8
	movq	%gs:(8), %r11
	movq	(%rsp, %r11, 1), %r11
	subq	%gs:(16), %r11
	addq	$8, %rsp
	jmpq	*%r11
.LBB7_6:
	.cfi_def_cfa_offset 32
###SPA## trampoline_fmt_64
	xorl	%eax, %eax
                                        # kill: def $al killed $al killed $eax
	popq	%rbx
	.cfi_def_cfa_offset 24
	popq	%r14
	.cfi_def_cfa_offset 16
	popq	%rbp
	.cfi_def_cfa_offset 8
	movq	%gs:(8), %r11
	movq	(%rsp, %r11, 1), %r11
	subq	%gs:(16), %r11
	addq	$8, %rsp
	jmpq	*%r11
.LBB7_12:
	.cfi_def_cfa_offset 32
###SPA## trampoline_fmt_64
	leaq	_ZGVZN2js4wasm19IsHugeMemoryEnabledEvE7enabled(%rip), %rdi
	callq	__cxa_guard_acquire@PLT
	testl	%eax, %eax
	je	.LBB7_14
###SPA### trampoline_fmt_64
# %bb.13:
	leaq	sHugeMemoryEnabled(%rip), %rbp
	movq	%rbp, %rdi
	callq	_ZN7mozilla6detail9MutexImpl4lockEv@PLT
	movb	$1, sHugeMemoryEnabled+41(%rip)
	movb	sHugeMemoryEnabled+40(%rip), %r14b
	movq	%rbp, %rdi
	callq	_ZN7mozilla6detail9MutexImpl6unlockEv@PLT
	movb	%r14b, _ZZN2js4wasm19IsHugeMemoryEnabledEvE7enabled(%rip)
	leaq	_ZGVZN2js4wasm19IsHugeMemoryEnabledEvE7enabled(%rip), %rdi
	callq	__cxa_guard_release@PLT
	jmp	.LBB7_14
.Lfunc_end7:
	.size	_ZN2js4wasm27GetOptimizedEncodingBuildIdEPN7mozilla6VectorIcLm0ENS_17SystemAllocPolicyEEE, .Lfunc_end7-_ZN2js4wasm27GetOptimizedEncodingBuildIdEPN7mozilla6VectorIcLm0ENS_17SystemAllocPolicyEEE
	.cfi_endproc
                                        # -- End function
	.section	.text._ZNK2js4wasm6Module9serializeERKNS0_8LinkDataEPhm,"ax",@progbits
	.hidden	_ZNK2js4wasm6Module9serializeERKNS0_8LinkDataEPhm # -- Begin function _ZNK2js4wasm6Module9serializeERKNS0_8LinkDataEPhm
	.globl	_ZNK2js4wasm6Module9serializeERKNS0_8LinkDataEPhm
	.p2align	4, 0x90
	.type	_ZNK2js4wasm6Module9serializeERKNS0_8LinkDataEPhm,@function
_ZNK2js4wasm6Module9serializeERKNS0_8LinkDataEPhm: # @_ZNK2js4wasm6Module9serializeERKNS0_8LinkDataEPhm
	.cfi_startproc
	movq	(%rsp), %r10
	addq	%gs:(16), %r10
	movq	%gs:(8), %r11
	movq	%r10, (%rsp, %r11, 1)
# %bb.0:
###SPA## trampoline_fmt_64
	pushq	%rbp
	.cfi_def_cfa_offset 16
	pushq	%r15
	.cfi_def_cfa_offset 24
	pushq	%r14
	.cfi_def_cfa_offset 32
	pushq	%r13
	.cfi_def_cfa_offset 40
	pushq	%r12
	.cfi_def_cfa_offset 48
	pushq	%rbx
	.cfi_def_cfa_offset 56
	subq	$56, %rsp
	.cfi_def_cfa_offset 112
	.cfi_offset %rbx, -56
	.cfi_offset %r12, -48
	.cfi_offset %r13, -40
	.cfi_offset %r14, -32
	.cfi_offset %r15, -24
	.cfi_offset %rbp, -16
	movq	%rdi, %r14
	movq	%fs:40, %rax
	movq	%rax, 48(%rsp)
	movq	16(%rdi), %rdi
	movq	32(%rdi), %rax
	cmpb	$0, 216(%rax)
	jne	.LBB8_25
###SPA### trampoline_fmt_64
# %bb.1:
	movq	%rcx, %rbx
	movq	%rdx, %r12
	movq	%rsi, %r15
	movl	$1, %esi
	callq	_ZNK2js4wasm4Code7hasTierENS0_4TierE
	testb	%al, %al
	je	.LBB8_26
###SPA### trampoline_fmt_64
# %bb.2:
	xorps	%xmm0, %xmm0
	movups	%xmm0, 32(%rsp)
	movq	$1, 24(%rsp)
	leaq	24(%rsp), %rdi
	callq	_ZN2js4wasm27GetOptimizedEncodingBuildIdEPN7mozilla6VectorIcLm0ENS_17SystemAllocPolicyEEE
	testb	%al, %al
	je	.LBB8_27
###SPA### trampoline_fmt_64
# %bb.3:
	movq	32(%rsp), %r13
	movl	%r13d, (%r12)
	leaq	4(%r12), %rbp
	testq	%r13, %r13
	je	.LBB8_5
###SPA### trampoline_fmt_64
# %bb.4:
	movq	24(%rsp), %rsi
	movq	%rbp, %rdi
	movq	%r13, %rdx
	callq	memcpy@PLT
.LBB8_5:
###SPA## trampoline_fmt_64
	movq	%rbx, 8(%rsp)           # 8-byte Spill
	addq	%r13, %rbp
	movq	%r15, %rdi
	movq	%rbp, %rsi
	callq	_ZNK2js4wasm8LinkData9serializeEPh
	movl	32(%r14), %ecx
	movl	%ecx, (%rax)
	addq	$4, %rax
	cmpq	$0, 32(%r14)
	je	.LBB8_8
###SPA### trampoline_fmt_64
# %bb.6:
	xorl	%ebp, %ebp
	xorl	%ebx, %ebx
	.p2align	4, 0x90
.LBB8_7:                                # =>This Inner Loop Header: Depth=1
###SPA## trampoline_fmt_64
	movq	24(%r14), %rdi
	addq	%rbp, %rdi
	movq	%rax, %rsi
	callq	_ZNK2js4wasm6Import9serializeEPh
	addq	$1, %rbx
	addq	$24, %rbp
	cmpq	32(%r14), %rbx
	jb	.LBB8_7
###SPA### trampoline_fmt_64
.LBB8_8:
###SPA## trampoline_fmt_64
	movl	56(%r14), %ecx
	movl	%ecx, (%rax)
	addq	$4, %rax
	cmpq	$0, 56(%r14)
	je	.LBB8_11
###SPA### trampoline_fmt_64
# %bb.9:
	xorl	%ebp, %ebp
	xorl	%ebx, %ebx
	.p2align	4, 0x90
.LBB8_10:                               # =>This Inner Loop Header: Depth=1
###SPA## trampoline_fmt_64
	movq	48(%r14), %rdi
	addq	%rbp, %rdi
	movq	%rax, %rsi
	callq	_ZNK2js4wasm6Export9serializeEPh
	addq	$1, %rbx
	addq	$16, %rbp
	cmpq	56(%r14), %rbx
	jb	.LBB8_10
###SPA### trampoline_fmt_64
.LBB8_11:
###SPA## trampoline_fmt_64
	movl	80(%r14), %ecx
	movl	%ecx, (%rax)
	addq	$4, %rax
	cmpq	$0, 80(%r14)
	je	.LBB8_14
###SPA### trampoline_fmt_64
# %bb.12:
	xorl	%ebx, %ebx
	.p2align	4, 0x90
.LBB8_13:                               # =>This Inner Loop Header: Depth=1
###SPA## trampoline_fmt_64
	movq	72(%r14), %rcx
	movq	(%rcx,%rbx,8), %rdi
	movq	%rax, %rsi
	callq	_ZNK2js4wasm11DataSegment9serializeEPh
	addq	$1, %rbx
	cmpq	80(%r14), %rbx
	jb	.LBB8_13
###SPA### trampoline_fmt_64
.LBB8_14:
###SPA## trampoline_fmt_64
	movl	104(%r14), %ecx
	movl	%ecx, (%rax)
	addq	$4, %rax
	cmpq	$0, 104(%r14)
	je	.LBB8_17
###SPA### trampoline_fmt_64
# %bb.15:
	xorl	%ebx, %ebx
	.p2align	4, 0x90
.LBB8_16:                               # =>This Inner Loop Header: Depth=1
###SPA## trampoline_fmt_64
	movq	96(%r14), %rcx
	movq	(%rcx,%rbx,8), %rdi
	movq	%rax, %rsi
	callq	_ZNK2js4wasm11ElemSegment9serializeEPh
	addq	$1, %rbx
	cmpq	104(%r14), %rbx
	jb	.LBB8_16
###SPA### trampoline_fmt_64
.LBB8_17:
###SPA## trampoline_fmt_64
	movl	128(%r14), %ecx
	movl	%ecx, (%rax)
	addq	$4, %rax
	cmpq	$0, 128(%r14)
	je	.LBB8_20
###SPA### trampoline_fmt_64
# %bb.18:
	xorl	%ebp, %ebp
	xorl	%ebx, %ebx
	.p2align	4, 0x90
.LBB8_19:                               # =>This Inner Loop Header: Depth=1
###SPA## trampoline_fmt_64
	movq	120(%r14), %rdi
	addq	%rbp, %rdi
	movq	%rax, %rsi
	callq	_ZNK2js4wasm13CustomSection9serializeEPh
	addq	$1, %rbx
	addq	$32, %rbp
	cmpq	128(%r14), %rbx
	jb	.LBB8_19
###SPA### trampoline_fmt_64
.LBB8_20:
###SPA## trampoline_fmt_64
	movq	16(%r14), %rdi
	movq	%rax, %rsi
	movq	%r15, %rdx
	callq	_ZNK2js4wasm4Code9serializeEPhRKNS0_8LinkDataE
	addq	8(%rsp), %r12           # 8-byte Folded Reload
	cmpq	%r12, %rax
	jne	.LBB8_28
###SPA### trampoline_fmt_64
# %bb.21:
	movq	24(%rsp), %rdi
	cmpq	$1, %rdi
	je	.LBB8_23
###SPA### trampoline_fmt_64
# %bb.22:
	callq	free@PLT
.LBB8_23:
###SPA## trampoline_fmt_64
	movq	%fs:40, %rax
	cmpq	48(%rsp), %rax
	jne	.LBB8_24
###SPA### trampoline_fmt_64
# %bb.29:
	addq	$56, %rsp
	.cfi_def_cfa_offset 56
	popq	%rbx
	.cfi_def_cfa_offset 48
	popq	%r12
	.cfi_def_cfa_offset 40
	popq	%r13
	.cfi_def_cfa_offset 32
	popq	%r14
	.cfi_def_cfa_offset 24
	popq	%r15
	.cfi_def_cfa_offset 16
	popq	%rbp
	.cfi_def_cfa_offset 8
	movq	%gs:(8), %r11
	movq	(%rsp, %r11, 1), %r11
	subq	%gs:(16), %r11
	addq	$8, %rsp
	jmpq	*%r11
.LBB8_25:
	.cfi_def_cfa_offset 112
###SPA## trampoline_fmt_64
	leaq	.L.str.1(%rip), %rax
	movq	gMozCrashReason@GOTPCREL(%rip), %rcx
	movq	%rax, (%rcx)
	movl	$208, 0
	callq	abort@PLT
.LBB8_26:
###SPA## trampoline_fmt_64
	leaq	.L.str.2(%rip), %rax
	movq	gMozCrashReason@GOTPCREL(%rip), %rcx
	movq	%rax, (%rcx)
	movl	$209, 0
	callq	abort@PLT
.LBB8_27:
###SPA## trampoline_fmt_64
	leaq	.L.str(%rip), %rsi
	leaq	16(%rsp), %rdi
	callq	_ZN2js24AutoEnterOOMUnsafeRegion5crashEPKc
.LBB8_28:
###SPA## trampoline_fmt_64
	leaq	.L.str.3(%rip), %rax
	movq	gMozCrashReason@GOTPCREL(%rip), %rcx
	movq	%rax, (%rcx)
	movl	$228, 0
	callq	abort@PLT
.LBB8_24:
###SPA## trampoline_fmt_64
	callq	__stack_chk_fail@PLT
.Lfunc_end8:
	.size	_ZNK2js4wasm6Module9serializeERKNS0_8LinkDataEPhm, .Lfunc_end8-_ZNK2js4wasm6Module9serializeERKNS0_8LinkDataEPhm
	.cfi_endproc
                                        # -- End function
	.section	.rodata.cst16,"aM",@progbits,16
	.p2align	4               # -- Begin function _ZN2js4wasm6Module11deserializeEPKhmPNS0_8MetadataE
.LCPI9_0:
	.zero	16
	.section	.text._ZN2js4wasm6Module11deserializeEPKhmPNS0_8MetadataE,"ax",@progbits
	.hidden	_ZN2js4wasm6Module11deserializeEPKhmPNS0_8MetadataE
	.globl	_ZN2js4wasm6Module11deserializeEPKhmPNS0_8MetadataE
	.p2align	4, 0x90
	.type	_ZN2js4wasm6Module11deserializeEPKhmPNS0_8MetadataE,@function
_ZN2js4wasm6Module11deserializeEPKhmPNS0_8MetadataE: # @_ZN2js4wasm6Module11deserializeEPKhmPNS0_8MetadataE
	.cfi_startproc
	movq	(%rsp), %r10
	addq	%gs:(16), %r10
	movq	%gs:(8), %r11
	movq	%r10, (%rsp, %r11, 1)
# %bb.0:
###SPA## trampoline_fmt_64
	pushq	%rbp
	.cfi_def_cfa_offset 16
	pushq	%r15
	.cfi_def_cfa_offset 24
	pushq	%r14
	.cfi_def_cfa_offset 32
	pushq	%r13
	.cfi_def_cfa_offset 40
	pushq	%r12
	.cfi_def_cfa_offset 48
	pushq	%rbx
	.cfi_def_cfa_offset 56
	subq	$4424, %rsp             # imm = 0x1148
	.cfi_def_cfa_offset 4480
	.cfi_offset %rbx, -56
	.cfi_offset %r12, -48
	.cfi_offset %r13, -40
	.cfi_offset %r14, -32
	.cfi_offset %r15, -24
	.cfi_offset %rbp, -16
	movq	%rcx, %r12
	movq	%rdx, %rbp
	movq	%rsi, %rbx
	movq	%rdi, %r14
	movq	%fs:40, %rax
	movq	%rax, 4416(%rsp)
	testq	%rcx, %rcx
	je	.LBB9_2
###SPA### trampoline_fmt_64
# %bb.1:
	lock		addq	$1, 8(%r12)
	movq	%r12, %r13
	jmp	.LBB9_4
.LBB9_2:
###SPA## trampoline_fmt_64
	movq	_ZN2js11MallocArenaE(%rip), %rdi
	movl	$280, %esi              # imm = 0x118
	callq	moz_arena_malloc@PLT
	testq	%rax, %rax
	je	.LBB9_181
###SPA### trampoline_fmt_64
# %bb.3:
	movq	%rax, %r13
	movb	$0, 40(%rax)
	movb	$0, 48(%rax)
	movb	$0, 56(%rax)
	movb	$0, 60(%rax)
	movb	$0, 64(%rax)
	movb	$0, 68(%rax)
	movw	$0, 72(%rax)
	movb	$0, 74(%rax)
	pxor	%xmm0, %xmm0
	movdqu	%xmm0, 20(%rax)
	movdqu	%xmm0, 8(%rax)
	leaq	_ZTVN2js4wasm8MetadataE+16(%rip), %rax
	movq	%rax, (%r13)
	movdqu	%xmm0, 88(%r13)
	movq	$192, 80(%r13)
	movdqu	%xmm0, 112(%r13)
	movq	$48, 104(%r13)
	movdqu	%xmm0, 136(%r13)
	movq	$24, 128(%r13)
	movb	$0, 184(%r13)
	movdqu	%xmm0, 200(%r13)
	movdqu	%xmm0, 161(%r13)
	movdqu	%xmm0, 152(%r13)
	movq	$8, 192(%r13)
	movb	$0, 216(%r13)
	movdqu	%xmm0, 232(%r13)
	movq	$88, 224(%r13)
	movdqu	%xmm0, 256(%r13)
	movq	$88, 248(%r13)
	movq	$0, 272(%r13)
	lock		addq	$1, 8(%r13)
.LBB9_4:
###SPA## trampoline_fmt_64
	pxor	%xmm0, %xmm0
	movdqu	%xmm0, 208(%rsp)
	movq	$1, 200(%rsp)
	leaq	200(%rsp), %rdi
	callq	_ZN2js4wasm27GetOptimizedEncodingBuildIdEPN7mozilla6VectorIcLm0ENS_17SystemAllocPolicyEEE
	testb	%al, %al
	je	.LBB9_22
###SPA### trampoline_fmt_64
# %bb.5:
	movq	%rbp, 24(%rsp)          # 8-byte Spill
	movl	(%rbx), %ebp
	movq	%rbx, 32(%rsp)          # 8-byte Spill
	leaq	4(%rbx), %r15
	testq	%rbp, %rbp
	je	.LBB9_24
###SPA### trampoline_fmt_64
# %bb.6:
	movq	_ZN2js11MallocArenaE(%rip), %rdi
	movq	%rbp, %rsi
	callq	moz_arena_malloc@PLT
	testq	%rax, %rax
	je	.LBB9_22
###SPA### trampoline_fmt_64
# %bb.7:
	movq	%rax, %rbx
	movq	%rax, %rdi
	movq	%r15, %rsi
	movq	%rbp, %rdx
	callq	memcpy@PLT
	movq	%r12, 16(%rsp)          # 8-byte Spill
	movq	%r13, (%rsp)            # 8-byte Spill
	cmpq	%rbp, 208(%rsp)
	jne	.LBB9_25
###SPA### trampoline_fmt_64
.LBB9_8:
###SPA## trampoline_fmt_64
	testl	%ebp, %ebp
	je	.LBB9_10
###SPA### trampoline_fmt_64
# %bb.9:
	movq	200(%rsp), %rdi
	movq	%rbx, %rsi
	movq	%rbp, %rdx
	callq	memcmp@PLT
	testl	%eax, %eax
	jne	.LBB9_25
###SPA### trampoline_fmt_64
.LBB9_10:
###SPA## trampoline_fmt_64
	movq	%rbx, 40(%rsp)          # 8-byte Spill
	addq	%rbp, %r15
	movabsq	$4294967296, %rax       # imm = 0x100000000
	movq	%rax, 240(%rsp)
	pxor	%xmm0, %xmm0
	movdqu	%xmm0, 256(%rsp)
	movq	$8, 248(%rsp)
	movl	$8, %eax
	movq	%rax, %xmm0
	pslldq	$8, %xmm0               # xmm0 = zero,zero,zero,zero,zero,zero,zero,zero,xmm0[0,1,2,3,4,5,6,7]
	movdqu	%xmm0, 280(%rsp)
	leaq	296(%rsp), %rax
	movq	%rax, 272(%rsp)
	movdqu	%xmm0, 336(%rsp)
	leaq	352(%rsp), %rax
	movq	%rax, 328(%rsp)
	movdqu	%xmm0, 392(%rsp)
	leaq	408(%rsp), %rax
	movq	%rax, 384(%rsp)
	movdqu	%xmm0, 448(%rsp)
	leaq	464(%rsp), %rax
	movq	%rax, 440(%rsp)
	movq	$0, 504(%rsp)
	movq	$8, 512(%rsp)
	leaq	520(%rsp), %rax
	movq	%rax, 496(%rsp)
	movdqu	%xmm0, 560(%rsp)
	leaq	576(%rsp), %rax
	movq	%rax, 552(%rsp)
	movdqu	%xmm0, 616(%rsp)
	leaq	632(%rsp), %rax
	movq	%rax, 608(%rsp)
	movdqu	%xmm0, 672(%rsp)
	leaq	688(%rsp), %rax
	movq	%rax, 664(%rsp)
	movdqu	%xmm0, 728(%rsp)
	leaq	744(%rsp), %rax
	movq	%rax, 720(%rsp)
	movdqu	%xmm0, 784(%rsp)
	leaq	800(%rsp), %rax
	movq	%rax, 776(%rsp)
	movdqu	%xmm0, 840(%rsp)
	leaq	856(%rsp), %rax
	movq	%rax, 832(%rsp)
	movdqu	%xmm0, 896(%rsp)
	leaq	912(%rsp), %rax
	movq	%rax, 888(%rsp)
	movdqu	%xmm0, 952(%rsp)
	leaq	968(%rsp), %rax
	movq	%rax, 944(%rsp)
	movdqu	%xmm0, 1008(%rsp)
	leaq	1024(%rsp), %rax
	movq	%rax, 1000(%rsp)
	movdqu	%xmm0, 1064(%rsp)
	leaq	1080(%rsp), %rax
	movq	%rax, 1056(%rsp)
	movdqu	%xmm0, 1120(%rsp)
	leaq	1136(%rsp), %rax
	movq	%rax, 1112(%rsp)
	movdqu	%xmm0, 1176(%rsp)
	leaq	1192(%rsp), %rax
	movq	%rax, 1168(%rsp)
	movdqu	%xmm0, 1232(%rsp)
	leaq	1248(%rsp), %rax
	movq	%rax, 1224(%rsp)
	movdqu	%xmm0, 1288(%rsp)
	leaq	1304(%rsp), %rax
	movq	%rax, 1280(%rsp)
	movdqu	%xmm0, 1344(%rsp)
	leaq	1360(%rsp), %rax
	movq	%rax, 1336(%rsp)
	movq	$0, 1400(%rsp)
	movq	$8, 1408(%rsp)
	leaq	1416(%rsp), %rax
	movq	%rax, 1392(%rsp)
	movdqu	%xmm0, 1456(%rsp)
	leaq	1472(%rsp), %rax
	movq	%rax, 1448(%rsp)
	movdqu	%xmm0, 1512(%rsp)
	leaq	1528(%rsp), %rax
	movq	%rax, 1504(%rsp)
	movdqu	%xmm0, 1568(%rsp)
	leaq	1584(%rsp), %rax
	movq	%rax, 1560(%rsp)
	movdqu	%xmm0, 1624(%rsp)
	leaq	1640(%rsp), %rax
	movq	%rax, 1616(%rsp)
	movdqu	%xmm0, 1680(%rsp)
	leaq	1696(%rsp), %rax
	movq	%rax, 1672(%rsp)
	movdqu	%xmm0, 1736(%rsp)
	leaq	1752(%rsp), %rax
	movq	%rax, 1728(%rsp)
	movdqu	%xmm0, 1792(%rsp)
	leaq	1808(%rsp), %rax
	movq	%rax, 1784(%rsp)
	movdqu	%xmm0, 1848(%rsp)
	leaq	1864(%rsp), %rax
	movq	%rax, 1840(%rsp)
	movdqu	%xmm0, 1904(%rsp)
	leaq	1920(%rsp), %rax
	movq	%rax, 1896(%rsp)
	movdqu	%xmm0, 1960(%rsp)
	leaq	1976(%rsp), %rax
	movq	%rax, 1952(%rsp)
	movdqu	%xmm0, 2016(%rsp)
	leaq	2032(%rsp), %rax
	movq	%rax, 2008(%rsp)
	movdqu	%xmm0, 2072(%rsp)
	leaq	2088(%rsp), %rax
	movq	%rax, 2064(%rsp)
	movdqu	%xmm0, 2128(%rsp)
	leaq	2144(%rsp), %rax
	movq	%rax, 2120(%rsp)
	movdqu	%xmm0, 2184(%rsp)
	leaq	2200(%rsp), %rax
	movq	%rax, 2176(%rsp)
	movdqu	%xmm0, 2240(%rsp)
	leaq	2256(%rsp), %rax
	movq	%rax, 2232(%rsp)
	movq	$0, 2296(%rsp)
	movq	$8, 2304(%rsp)
	leaq	2312(%rsp), %rax
	movq	%rax, 2288(%rsp)
	movdqu	%xmm0, 2352(%rsp)
	leaq	2368(%rsp), %rax
	movq	%rax, 2344(%rsp)
	movdqu	%xmm0, 2408(%rsp)
	leaq	2424(%rsp), %rax
	movq	%rax, 2400(%rsp)
	movdqu	%xmm0, 2464(%rsp)
	leaq	2480(%rsp), %rax
	movq	%rax, 2456(%rsp)
	movdqu	%xmm0, 2520(%rsp)
	leaq	2536(%rsp), %rax
	movq	%rax, 2512(%rsp)
	movdqu	%xmm0, 2576(%rsp)
	leaq	2592(%rsp), %rax
	movq	%rax, 2568(%rsp)
	movdqu	%xmm0, 2632(%rsp)
	leaq	2648(%rsp), %rax
	movq	%rax, 2624(%rsp)
	movdqu	%xmm0, 2688(%rsp)
	leaq	2704(%rsp), %rax
	movq	%rax, 2680(%rsp)
	movdqu	%xmm0, 2744(%rsp)
	leaq	2760(%rsp), %rax
	movq	%rax, 2736(%rsp)
	movdqu	%xmm0, 2800(%rsp)
	leaq	2816(%rsp), %rax
	movq	%rax, 2792(%rsp)
	movdqu	%xmm0, 2856(%rsp)
	leaq	2872(%rsp), %rax
	movq	%rax, 2848(%rsp)
	movdqu	%xmm0, 2912(%rsp)
	leaq	2928(%rsp), %rax
	movq	%rax, 2904(%rsp)
	movdqu	%xmm0, 2968(%rsp)
	leaq	2984(%rsp), %rax
	movq	%rax, 2960(%rsp)
	movdqu	%xmm0, 3024(%rsp)
	leaq	3040(%rsp), %rax
	movq	%rax, 3016(%rsp)
	movdqu	%xmm0, 3080(%rsp)
	leaq	3096(%rsp), %rax
	movq	%rax, 3072(%rsp)
	movdqu	%xmm0, 3136(%rsp)
	leaq	3152(%rsp), %rax
	movq	%rax, 3128(%rsp)
	movq	$0, 3192(%rsp)
	movq	$8, 3200(%rsp)
	leaq	3208(%rsp), %rax
	movq	%rax, 3184(%rsp)
	movdqu	%xmm0, 3248(%rsp)
	leaq	3264(%rsp), %rax
	movq	%rax, 3240(%rsp)
	movdqu	%xmm0, 3304(%rsp)
	leaq	3320(%rsp), %rax
	movq	%rax, 3296(%rsp)
	movdqu	%xmm0, 3360(%rsp)
	leaq	3376(%rsp), %rax
	movq	%rax, 3352(%rsp)
	movdqu	%xmm0, 3416(%rsp)
	leaq	3432(%rsp), %rax
	movq	%rax, 3408(%rsp)
	movdqu	%xmm0, 3472(%rsp)
	leaq	3488(%rsp), %rax
	movq	%rax, 3464(%rsp)
	movdqu	%xmm0, 3528(%rsp)
	leaq	3544(%rsp), %rax
	movq	%rax, 3520(%rsp)
	movdqu	%xmm0, 3584(%rsp)
	leaq	3600(%rsp), %rax
	movq	%rax, 3576(%rsp)
	movdqu	%xmm0, 3640(%rsp)
	leaq	3656(%rsp), %rax
	movq	%rax, 3632(%rsp)
	movdqu	%xmm0, 3696(%rsp)
	leaq	3712(%rsp), %rax
	movq	%rax, 3688(%rsp)
	movdqu	%xmm0, 3752(%rsp)
	leaq	3768(%rsp), %rax
	movq	%rax, 3744(%rsp)
	movdqu	%xmm0, 3808(%rsp)
	leaq	3824(%rsp), %rax
	movq	%rax, 3800(%rsp)
	movdqu	%xmm0, 3864(%rsp)
	leaq	3880(%rsp), %rax
	movq	%rax, 3856(%rsp)
	movdqu	%xmm0, 3920(%rsp)
	leaq	3936(%rsp), %rax
	movq	%rax, 3912(%rsp)
	movdqu	%xmm0, 3976(%rsp)
	leaq	3992(%rsp), %rax
	movq	%rax, 3968(%rsp)
	movdqu	%xmm0, 4032(%rsp)
	leaq	4048(%rsp), %rax
	movq	%rax, 4024(%rsp)
	movq	$0, 4088(%rsp)
	movq	$8, 4096(%rsp)
	leaq	4104(%rsp), %rax
	movq	%rax, 4080(%rsp)
	movdqu	%xmm0, 4144(%rsp)
	leaq	4160(%rsp), %rax
	movq	%rax, 4136(%rsp)
	movdqu	%xmm0, 4200(%rsp)
	leaq	4216(%rsp), %rax
	movq	%rax, 4192(%rsp)
	movdqu	%xmm0, 4256(%rsp)
	leaq	4272(%rsp), %rax
	movq	%rax, 4248(%rsp)
	movdqu	%xmm0, 4312(%rsp)
	leaq	4328(%rsp), %rax
	movq	%rax, 4304(%rsp)
	movdqu	%xmm0, 4368(%rsp)
	leaq	4384(%rsp), %r12
	movq	%r12, 4360(%rsp)
	leaq	240(%rsp), %rdi
	movq	%r15, %rsi
	callq	_ZN2js4wasm8LinkData11deserializeEPKh
	testq	%rax, %rax
	je	.LBB9_26
###SPA### trampoline_fmt_64
# %bb.11:
	movq	%rax, %r13
	pxor	%xmm0, %xmm0
	movdqu	%xmm0, 184(%rsp)
	movq	$24, 176(%rsp)
	movl	(%rax), %esi
	leaq	176(%rsp), %rdi
	callq	_ZN7mozilla6VectorIN2js4wasm6ImportELm0ENS1_17SystemAllocPolicyEE6resizeEm
	testb	%al, %al
	je	.LBB9_23
###SPA### trampoline_fmt_64
# %bb.12:
	addq	$4, %r13
	cmpq	$0, 184(%rsp)
	je	.LBB9_16
###SPA### trampoline_fmt_64
# %bb.13:
	xorl	%ebx, %ebx
	xorl	%ebp, %ebp
	.p2align	4, 0x90
.LBB9_14:                               # =>This Inner Loop Header: Depth=1
###SPA## trampoline_fmt_64
	movq	176(%rsp), %rdi
	addq	%rbx, %rdi
	movq	%r13, %rsi
	callq	_ZN2js4wasm6Import11deserializeEPKh
	testq	%rax, %rax
	je	.LBB9_23
###SPA### trampoline_fmt_64
# %bb.15:                               #   in Loop: Header=BB9_14 Depth=1
	movq	%rax, %r13
	addq	$1, %rbp
	addq	$24, %rbx
	cmpq	184(%rsp), %rbp
	jb	.LBB9_14
###SPA### trampoline_fmt_64
.LBB9_16:
###SPA## trampoline_fmt_64
	pxor	%xmm0, %xmm0
	movdqu	%xmm0, 160(%rsp)
	movq	$16, 152(%rsp)
	movl	(%r13), %ebx
	addq	$4, %r13
	testq	%rbx, %rbx
	je	.LBB9_27
###SPA### trampoline_fmt_64
# %bb.17:
	leaq	152(%rsp), %rdi
	movq	%rbx, %rsi
	callq	_ZN7mozilla6VectorIN2js4wasm6ExportELm0ENS1_17SystemAllocPolicyEE13growStorageByEm
	testb	%al, %al
	je	.LBB9_64
###SPA### trampoline_fmt_64
# %bb.18:
	movq	160(%rsp), %rdi
	shlq	$4, %rdi
	addq	152(%rsp), %rdi
	movq	%rbx, %rax
	shlq	$4, %rax
	addq	%rdi, %rax
	movq	%rdi, %rcx
	notq	%rcx
	leaq	(%rcx,%rax), %rdx
	addq	$16, %rdx
	andq	$-16, %rdx
	xorl	%esi, %esi
	callq	memset@PLT
	addq	%rbx, 160(%rsp)
	je	.LBB9_28
###SPA### trampoline_fmt_64
# %bb.19:
	xorl	%ebx, %ebx
	xorl	%ebp, %ebp
	.p2align	4, 0x90
.LBB9_20:                               # =>This Inner Loop Header: Depth=1
###SPA## trampoline_fmt_64
	movq	152(%rsp), %rdi
	addq	%rbx, %rdi
	movq	%r13, %rsi
	callq	_ZN2js4wasm6Export11deserializeEPKh
	testq	%rax, %rax
	je	.LBB9_64
###SPA### trampoline_fmt_64
# %bb.21:                               #   in Loop: Header=BB9_20 Depth=1
	movq	%rax, %r13
	addq	$1, %rbp
	addq	$16, %rbx
	cmpq	160(%rsp), %rbp
	jb	.LBB9_20
###SPA### trampoline_fmt_64
	jmp	.LBB9_28
.LBB9_22:
###SPA## trampoline_fmt_64
	movq	$0, (%r14)
	movq	200(%rsp), %rdi
	cmpq	$1, %rdi
	jne	.LBB9_175
###SPA### trampoline_fmt_64
	jmp	.LBB9_176
.LBB9_23:
###SPA## trampoline_fmt_64
	movq	$0, (%r14)
	movq	(%rsp), %r13            # 8-byte Reload
	movq	176(%rsp), %rbx
	movq	184(%rsp), %rax
	testq	%rax, %rax
	jg	.LBB9_157
###SPA### trampoline_fmt_64
	jmp	.LBB9_164
.LBB9_24:
###SPA## trampoline_fmt_64
	movl	$1, %ebx
	movq	%r12, 16(%rsp)          # 8-byte Spill
	movq	%r13, (%rsp)            # 8-byte Spill
	cmpq	%rbp, 208(%rsp)
	je	.LBB9_8
###SPA### trampoline_fmt_64
.LBB9_25:
###SPA## trampoline_fmt_64
	leaq	.L.str.4(%rip), %rax
	movq	gMozCrashReason@GOTPCREL(%rip), %rcx
	movq	%rax, (%rcx)
	movl	$255, 0
	callq	abort@PLT
.LBB9_26:
###SPA## trampoline_fmt_64
	movq	$0, (%r14)
	movq	(%rsp), %r13            # 8-byte Reload
	jmp	.LBB9_166
.LBB9_27:
###SPA## trampoline_fmt_64
	movq	%rbx, 160(%rsp)
.LBB9_28:
###SPA## trampoline_fmt_64
	pxor	%xmm0, %xmm0
	movdqu	%xmm0, 136(%rsp)
	movq	$8, 128(%rsp)
	movl	(%r13), %esi
	leaq	128(%rsp), %rdi
	callq	_ZN7mozilla6VectorIN2js4wasm18SerializableRefPtrIKNS2_11DataSegmentEEELm0ENS1_17SystemAllocPolicyEE6resizeEm
	testb	%al, %al
	je	.LBB9_46
###SPA### trampoline_fmt_64
# %bb.29:
	addq	$4, %r13
	cmpq	$0, 136(%rsp)
	je	.LBB9_47
###SPA### trampoline_fmt_64
# %bb.30:
	xorl	%r15d, %r15d
	movq	%r14, 8(%rsp)           # 8-byte Spill
	.p2align	4, 0x90
.LBB9_31:                               # =>This Inner Loop Header: Depth=1
###SPA## trampoline_fmt_64
	movq	128(%rsp), %r14
	movq	_ZN2js11MallocArenaE(%rip), %rdi
	movl	$72, %esi
	callq	moz_arena_malloc@PLT
	testq	%rax, %rax
	je	.LBB9_40
###SPA### trampoline_fmt_64
# %bb.32:                               #   in Loop: Header=BB9_31 Depth=1
	movq	%rax, %rbx
	pxor	%xmm0, %xmm0
	movdqu	%xmm0, 48(%rax)
	movdqu	%xmm0, 32(%rax)
	movdqu	%xmm0, 16(%rax)
	movdqu	%xmm0, (%rax)
	movq	$0, 64(%rax)
	movq	$1, 48(%rax)
	lock		addq	$1, (%rax)
	movq	(%r14,%r15,8), %rbp
	movq	%rax, (%r14,%r15,8)
	testq	%rbp, %rbp
	je	.LBB9_37
###SPA### trampoline_fmt_64
# %bb.33:                               #   in Loop: Header=BB9_31 Depth=1
	lock		subq	$1, (%rbp)
	movq	8(%rsp), %r14           # 8-byte Reload
	jne	.LBB9_38
###SPA### trampoline_fmt_64
# %bb.34:                               #   in Loop: Header=BB9_31 Depth=1
	movq	48(%rbp), %rdi
	cmpq	$1, %rdi
	je	.LBB9_36
###SPA### trampoline_fmt_64
# %bb.35:                               #   in Loop: Header=BB9_31 Depth=1
	callq	free@PLT
.LBB9_36:                               #   in Loop: Header=BB9_31 Depth=1
###SPA## trampoline_fmt_64
	movq	%rbp, %rdi
	callq	free@PLT
	jmp	.LBB9_38
.LBB9_40:                               #   in Loop: Header=BB9_31 Depth=1
###SPA## trampoline_fmt_64
	movq	(%r14,%r15,8), %rbx
	movq	$0, (%r14,%r15,8)
	testq	%rbx, %rbx
	je	.LBB9_45
###SPA### trampoline_fmt_64
# %bb.41:                               #   in Loop: Header=BB9_31 Depth=1
	lock		subq	$1, (%rbx)
	jne	.LBB9_45
###SPA### trampoline_fmt_64
# %bb.42:                               #   in Loop: Header=BB9_31 Depth=1
	movq	48(%rbx), %rdi
	cmpq	$1, %rdi
	je	.LBB9_44
###SPA### trampoline_fmt_64
# %bb.43:                               #   in Loop: Header=BB9_31 Depth=1
	callq	free@PLT
.LBB9_44:                               #   in Loop: Header=BB9_31 Depth=1
###SPA## trampoline_fmt_64
	movq	%rbx, %rdi
	callq	free@PLT
.LBB9_45:                               #   in Loop: Header=BB9_31 Depth=1
###SPA## trampoline_fmt_64
	xorl	%ebx, %ebx
.LBB9_37:                               #   in Loop: Header=BB9_31 Depth=1
###SPA## trampoline_fmt_64
	movq	8(%rsp), %r14           # 8-byte Reload
.LBB9_38:                               #   in Loop: Header=BB9_31 Depth=1
###SPA## trampoline_fmt_64
	movq	%rbx, %rdi
	movq	%r13, %rsi
	callq	_ZN2js4wasm11DataSegment11deserializeEPKh
	testq	%rax, %rax
	je	.LBB9_46
###SPA### trampoline_fmt_64
# %bb.39:                               #   in Loop: Header=BB9_31 Depth=1
	movq	%rax, %r13
	addq	$1, %r15
	cmpq	136(%rsp), %r15
	jb	.LBB9_31
###SPA### trampoline_fmt_64
.LBB9_47:
###SPA## trampoline_fmt_64
	pxor	%xmm0, %xmm0
	movdqu	%xmm0, 112(%rsp)
	movq	$8, 104(%rsp)
	movl	(%r13), %esi
	leaq	104(%rsp), %rdi
	callq	_ZN7mozilla6VectorIN2js4wasm18SerializableRefPtrIKNS2_11ElemSegmentEEELm0ENS1_17SystemAllocPolicyEE6resizeEm
	testb	%al, %al
	je	.LBB9_65
###SPA### trampoline_fmt_64
# %bb.48:
	addq	$4, %r13
	cmpq	$0, 112(%rsp)
	je	.LBB9_66
###SPA### trampoline_fmt_64
# %bb.49:
	xorl	%ebp, %ebp
	movl	$8, %eax
	movq	%rax, %xmm0
	pslldq	$8, %xmm0               # xmm0 = zero,zero,zero,zero,zero,zero,zero,zero,xmm0[0,1,2,3,4,5,6,7]
	movdqa	%xmm0, 48(%rsp)         # 16-byte Spill
.LBB9_50:                               # =>This Inner Loop Header: Depth=1
###SPA## trampoline_fmt_64
	movq	104(%rsp), %rbx
	movq	_ZN2js11MallocArenaE(%rip), %rdi
	movl	$120, %esi
	callq	moz_arena_malloc@PLT
	testq	%rax, %rax
	je	.LBB9_58
###SPA### trampoline_fmt_64
# %bb.51:                               #   in Loop: Header=BB9_50 Depth=1
	movq	%rax, %r15
	pxor	%xmm0, %xmm0
	movdqu	%xmm0, 16(%rax)
	movdqu	%xmm0, 48(%rax)
	movdqu	%xmm0, 80(%rax)
	movdqu	%xmm0, 64(%rax)
	movdqu	%xmm0, 96(%rax)
	movdqu	%xmm0, 32(%rax)
	movdqu	%xmm0, (%rax)
	movq	$0, 112(%rax)
	movl	$255, 16(%rax)
	movb	$0, 24(%rax)
	movb	$0, 56(%rax)
	movdqa	48(%rsp), %xmm0         # 16-byte Reload
	movdqu	%xmm0, 72(%rax)
	addq	$88, %rax
	movq	%rax, 64(%r15)
	lock		addq	$1, (%r15)
	movq	%rbx, %rax
	movq	(%rbx,%rbp,8), %rbx
	movq	%r15, (%rax,%rbp,8)
	testq	%rbx, %rbx
	je	.LBB9_56
###SPA### trampoline_fmt_64
# %bb.52:                               #   in Loop: Header=BB9_50 Depth=1
	lock		subq	$1, (%rbx)
	jne	.LBB9_56
###SPA### trampoline_fmt_64
# %bb.53:                               #   in Loop: Header=BB9_50 Depth=1
	movq	64(%rbx), %rdi
	leaq	88(%rbx), %rax
	cmpq	%rax, %rdi
	je	.LBB9_55
###SPA### trampoline_fmt_64
# %bb.54:                               #   in Loop: Header=BB9_50 Depth=1
	callq	free@PLT
.LBB9_55:                               #   in Loop: Header=BB9_50 Depth=1
###SPA## trampoline_fmt_64
	movq	%rbx, %rdi
	callq	free@PLT
.LBB9_56:                               #   in Loop: Header=BB9_50 Depth=1
###SPA## trampoline_fmt_64
	movq	%r15, %rdi
	movq	%r13, %rsi
	callq	_ZN2js4wasm11ElemSegment11deserializeEPKh
	testq	%rax, %rax
	je	.LBB9_65
###SPA### trampoline_fmt_64
# %bb.57:                               #   in Loop: Header=BB9_50 Depth=1
	movq	%rax, %r13
	addq	$1, %rbp
	cmpq	112(%rsp), %rbp
	jb	.LBB9_50
###SPA### trampoline_fmt_64
	jmp	.LBB9_66
.LBB9_58:                               #   in Loop: Header=BB9_50 Depth=1
###SPA## trampoline_fmt_64
	movq	%rbx, %rax
	movq	(%rbx,%rbp,8), %rbx
	movq	$0, (%rax,%rbp,8)
	testq	%rbx, %rbx
	je	.LBB9_63
###SPA### trampoline_fmt_64
# %bb.59:                               #   in Loop: Header=BB9_50 Depth=1
	lock		subq	$1, (%rbx)
	jne	.LBB9_63
###SPA### trampoline_fmt_64
# %bb.60:                               #   in Loop: Header=BB9_50 Depth=1
	movq	64(%rbx), %rdi
	leaq	88(%rbx), %rax
	cmpq	%rax, %rdi
	je	.LBB9_62
###SPA### trampoline_fmt_64
# %bb.61:                               #   in Loop: Header=BB9_50 Depth=1
	callq	free@PLT
.LBB9_62:                               #   in Loop: Header=BB9_50 Depth=1
###SPA## trampoline_fmt_64
	movq	%rbx, %rdi
	callq	free@PLT
.LBB9_63:                               #   in Loop: Header=BB9_50 Depth=1
###SPA## trampoline_fmt_64
	xorl	%r15d, %r15d
	jmp	.LBB9_56
.LBB9_46:
###SPA## trampoline_fmt_64
	movq	$0, (%r14)
	movq	(%rsp), %r13            # 8-byte Reload
	movq	128(%rsp), %rbx
	movq	136(%rsp), %rax
	testq	%rax, %rax
	jg	.LBB9_138
###SPA### trampoline_fmt_64
	jmp	.LBB9_146
.LBB9_64:
###SPA## trampoline_fmt_64
	movq	$0, (%r14)
	movq	(%rsp), %r13            # 8-byte Reload
	movq	152(%rsp), %rbx
	movq	160(%rsp), %rbp
	testq	%rbp, %rbp
	jg	.LBB9_149
###SPA### trampoline_fmt_64
	jmp	.LBB9_154
.LBB9_65:
###SPA## trampoline_fmt_64
	movq	$0, (%r14)
	movq	(%rsp), %r13            # 8-byte Reload
	movq	104(%rsp), %rbx
	movq	112(%rsp), %rax
	testq	%rax, %rax
	jg	.LBB9_127
###SPA### trampoline_fmt_64
	jmp	.LBB9_135
.LBB9_66:
###SPA## trampoline_fmt_64
	pxor	%xmm0, %xmm0
	movdqu	%xmm0, 88(%rsp)
	movq	$32, 80(%rsp)
	movl	(%r13), %ebx
	addq	$4, %r13
	testq	%rbx, %rbx
	je	.LBB9_78
###SPA### trampoline_fmt_64
# %bb.67:
	leaq	80(%rsp), %rdi
	movq	%rbx, %rsi
	callq	_ZN7mozilla6VectorIN2js4wasm13CustomSectionELm0ENS1_17SystemAllocPolicyEE13growStorageByEm
	testb	%al, %al
	je	.LBB9_86
###SPA### trampoline_fmt_64
# %bb.68:
	movq	80(%rsp), %rdx
	movq	88(%rsp), %rsi
	shlq	$5, %rsi
	leaq	(%rdx,%rsi), %rax
	movq	%rbx, %rcx
	shlq	$5, %rcx
	addq	%rax, %rcx
	leaq	(%rdx,%rsi), %rdi
	addq	$32, %rdi
	cmpq	%rdi, %rcx
	cmovaq	%rcx, %rdi
	subq	%rsi, %rdi
	notq	%rdx
	addq	%rdi, %rdx
	movl	%edx, %esi
	shrl	$5, %esi
	addl	$1, %esi
	andq	$7, %rsi
	je	.LBB9_71
###SPA### trampoline_fmt_64
# %bb.69:
	negq	%rsi
	pxor	%xmm0, %xmm0
.LBB9_70:                               # =>This Inner Loop Header: Depth=1
###SPA## trampoline_fmt_64
	movdqu	%xmm0, 8(%rax)
	movq	$1, (%rax)
	movq	$0, 24(%rax)
	addq	$32, %rax
	addq	$1, %rsi
	jne	.LBB9_70
###SPA### trampoline_fmt_64
.LBB9_71:
###SPA## trampoline_fmt_64
	cmpq	$224, %rdx
	jb	.LBB9_74
###SPA### trampoline_fmt_64
# %bb.72:
	pxor	%xmm0, %xmm0
.LBB9_73:                               # =>This Inner Loop Header: Depth=1
###SPA## trampoline_fmt_64
	movdqu	%xmm0, 8(%rax)
	movq	$1, (%rax)
	movq	$0, 24(%rax)
	movdqu	%xmm0, 40(%rax)
	movq	$1, 32(%rax)
	movq	$0, 56(%rax)
	movdqu	%xmm0, 72(%rax)
	movq	$1, 64(%rax)
	movq	$0, 88(%rax)
	movdqu	%xmm0, 104(%rax)
	movq	$1, 96(%rax)
	movq	$0, 120(%rax)
	movdqu	%xmm0, 136(%rax)
	movq	$1, 128(%rax)
	movq	$0, 152(%rax)
	movdqu	%xmm0, 168(%rax)
	movq	$1, 160(%rax)
	movq	$0, 184(%rax)
	movdqu	%xmm0, 200(%rax)
	movq	$1, 192(%rax)
	movq	$0, 216(%rax)
	movdqu	%xmm0, 232(%rax)
	movq	$1, 224(%rax)
	movq	$0, 248(%rax)
	addq	$256, %rax              # imm = 0x100
	cmpq	%rcx, %rax
	jb	.LBB9_73
###SPA### trampoline_fmt_64
.LBB9_74:
###SPA## trampoline_fmt_64
	addq	%rbx, 88(%rsp)
	je	.LBB9_79
###SPA### trampoline_fmt_64
# %bb.75:
	xorl	%ebx, %ebx
	xorl	%ebp, %ebp
.LBB9_76:                               # =>This Inner Loop Header: Depth=1
###SPA## trampoline_fmt_64
	movq	80(%rsp), %rdi
	addq	%rbx, %rdi
	movq	%r13, %rsi
	callq	_ZN2js4wasm13CustomSection11deserializeEPKh
	testq	%rax, %rax
	je	.LBB9_86
###SPA### trampoline_fmt_64
# %bb.77:                               #   in Loop: Header=BB9_76 Depth=1
	movq	%rax, %r13
	addq	$1, %rbp
	addq	$32, %rbx
	cmpq	88(%rsp), %rbp
	jb	.LBB9_76
###SPA### trampoline_fmt_64
	jmp	.LBB9_79
.LBB9_78:
###SPA## trampoline_fmt_64
	movq	%rbx, 88(%rsp)
.LBB9_79:
###SPA## trampoline_fmt_64
	movq	$0, 72(%rsp)
	leaq	240(%rsp), %rsi
	leaq	72(%rsp), %rcx
	movq	%r13, %rdi
	movq	(%rsp), %r13            # 8-byte Reload
	movq	%r13, %rdx
	callq	_ZN2js4wasm4Code11deserializeEPKhRKNS0_8LinkDataERNS0_8MetadataEP6RefPtrIKS1_E
	testq	%rax, %rax
	je	.LBB9_85
###SPA### trampoline_fmt_64
# %bb.80:
	movq	32(%rsp), %rcx          # 8-byte Reload
	addq	24(%rsp), %rcx          # 8-byte Folded Reload
	cmpq	%rcx, %rax
	jne	.LBB9_185
###SPA### trampoline_fmt_64
# %bb.81:
	cmpq	$0, 16(%rsp)            # 8-byte Folded Reload
	setne	%al
	movq	72(%rsp), %rcx
	movq	32(%rcx), %rcx
	cmpl	$1, 16(%rcx)
	sete	%cl
	cmpb	%cl, %al
	jne	.LBB9_186
###SPA### trampoline_fmt_64
# %bb.82:
	cmpb	$0, 68(%r13)
	je	.LBB9_87
###SPA### trampoline_fmt_64
# %bb.83:
	movl	64(%r13), %eax
	movq	80(%rsp), %rcx
	shlq	$5, %rax
	movq	24(%rcx,%rax), %rax
	testq	%rax, %rax
	je	.LBB9_90
###SPA### trampoline_fmt_64
# %bb.84:
	lock		addq	$1, (%rax)
	movq	168(%r13), %rbx
	movq	%rax, 168(%r13)
	testq	%rbx, %rbx
	jne	.LBB9_91
###SPA### trampoline_fmt_64
	jmp	.LBB9_95
.LBB9_85:
###SPA## trampoline_fmt_64
	movq	$0, (%r14)
	movq	72(%rsp), %rbx
	testq	%rbx, %rbx
	jne	.LBB9_111
###SPA### trampoline_fmt_64
	jmp	.LBB9_113
.LBB9_86:
###SPA## trampoline_fmt_64
	movq	$0, (%r14)
	movq	(%rsp), %r13            # 8-byte Reload
	movq	80(%rsp), %rbp
	movq	88(%rsp), %r15
	testq	%r15, %r15
	jg	.LBB9_114
###SPA### trampoline_fmt_64
	jmp	.LBB9_124
.LBB9_87:
###SPA## trampoline_fmt_64
	cmpb	$0, 184(%r13)
	jne	.LBB9_187
###SPA### trampoline_fmt_64
# %bb.88:
	cmpq	$0, 200(%r13)
	je	.LBB9_95
###SPA### trampoline_fmt_64
# %bb.89:
	leaq	.L.str.7(%rip), %rax
	movq	gMozCrashReason@GOTPCREL(%rip), %rcx
	movq	%rax, (%rcx)
	movl	$307, 0                 # imm = 0x133
	callq	abort@PLT
.LBB9_90:
###SPA## trampoline_fmt_64
	movq	168(%r13), %rbx
	movq	$0, 168(%r13)
	testq	%rbx, %rbx
	je	.LBB9_95
###SPA### trampoline_fmt_64
.LBB9_91:
###SPA## trampoline_fmt_64
	lock		subq	$1, (%rbx)
	jne	.LBB9_95
###SPA### trampoline_fmt_64
# %bb.92:
	movq	8(%rbx), %rdi
	cmpq	$1, %rdi
	je	.LBB9_94
###SPA### trampoline_fmt_64
# %bb.93:
	callq	free@PLT
.LBB9_94:
###SPA## trampoline_fmt_64
	movq	%rbx, %rdi
	callq	free@PLT
.LBB9_95:
###SPA## trampoline_fmt_64
	movq	72(%rsp), %rbx
	movq	_ZN2js11MallocArenaE(%rip), %rdi
	movl	$200, %esi
	callq	moz_arena_malloc@PLT
	testq	%rax, %rax
	je	.LBB9_184
###SPA### trampoline_fmt_64
# %bb.96:
	movq	%rax, %r15
	movq	$0, 232(%rsp)
	movq	$0, 224(%rsp)
	subq	$8, %rsp
	.cfi_adjust_cfa_offset 8
	leaq	232(%rsp), %rax
	leaq	240(%rsp), %rbp
	leaq	88(%rsp), %r10
	leaq	184(%rsp), %rdx
	leaq	160(%rsp), %rcx
	leaq	136(%rsp), %r8
	leaq	112(%rsp), %r9
	movq	%r15, %rdi
	movq	%rbx, %rsi
	pushq	$1
	.cfi_adjust_cfa_offset 8
	pushq	$0
	.cfi_adjust_cfa_offset 8
	pushq	%rax
	.cfi_adjust_cfa_offset 8
	pushq	%rbp
	.cfi_adjust_cfa_offset 8
	pushq	%r10
	.cfi_adjust_cfa_offset 8
	callq	_ZN2js4wasm6ModuleC2ERKNS0_4CodeEON7mozilla6VectorINS0_6ImportELm0ENS_17SystemAllocPolicyEEEONS6_INS0_6ExportELm0ES8_EEONS6_INS0_18SerializableRefPtrIKNS0_11DataSegmentEEELm0ES8_EEONS6_INSE_IKNS0_11ElemSegmentEEELm0ES8_EEONS6_INS0_13CustomSectionELm0ES8_EENS5_9UniquePtrIKNS6_IhLm0ES8_EEN2JS12DeletePolicyISU_EEEENSS_INS0_8LinkDataENSW_ISZ_EEEEPKNS0_14ShareableBytesEb
	addq	$48, %rsp
	.cfi_adjust_cfa_offset -48
	movq	224(%rsp), %r13
	movq	$0, 224(%rsp)
	testq	%r13, %r13
	je	.LBB9_104
###SPA### trampoline_fmt_64
# %bb.97:
	leaq	4144(%r13), %rbp
	movq	$-4144, %rbx            # imm = 0xEFD0
.LBB9_98:                               # =>This Inner Loop Header: Depth=1
###SPA## trampoline_fmt_64
	movq	-24(%rbp), %rdi
	cmpq	%rdi, %rbp
	je	.LBB9_100
###SPA### trampoline_fmt_64
# %bb.99:                               #   in Loop: Header=BB9_98 Depth=1
	callq	free@PLT
.LBB9_100:                              #   in Loop: Header=BB9_98 Depth=1
###SPA## trampoline_fmt_64
	addq	$-56, %rbp
	addq	$56, %rbx
	jne	.LBB9_98
###SPA### trampoline_fmt_64
# %bb.101:
	movq	8(%r13), %rdi
	cmpq	$8, %rdi
	je	.LBB9_103
###SPA### trampoline_fmt_64
# %bb.102:
	callq	free@PLT
.LBB9_103:
###SPA## trampoline_fmt_64
	movq	%r13, %rdi
	callq	free@PLT
.LBB9_104:
###SPA## trampoline_fmt_64
	movq	232(%rsp), %rbx
	movq	$0, 232(%rsp)
	testq	%rbx, %rbx
	je	.LBB9_108
###SPA### trampoline_fmt_64
# %bb.105:
	movq	(%rbx), %rdi
	cmpq	$1, %rdi
	movq	(%rsp), %r13            # 8-byte Reload
	je	.LBB9_107
###SPA### trampoline_fmt_64
# %bb.106:
	callq	free@PLT
.LBB9_107:
###SPA## trampoline_fmt_64
	movq	%rbx, %rdi
	callq	free@PLT
	movq	%r15, (%r14)
	testq	%r15, %r15
	je	.LBB9_110
###SPA### trampoline_fmt_64
.LBB9_109:
###SPA## trampoline_fmt_64
	lock		addq	$1, 8(%r15)
.LBB9_110:
###SPA## trampoline_fmt_64
	movq	72(%rsp), %rbx
	testq	%rbx, %rbx
	je	.LBB9_113
###SPA### trampoline_fmt_64
.LBB9_111:
###SPA## trampoline_fmt_64
	lock		subq	$1, (%rbx)
	jne	.LBB9_113
###SPA### trampoline_fmt_64
# %bb.112:
	movq	%rbx, %rdi
	callq	_ZN2js4wasm4CodeD2Ev
	movq	%rbx, %rdi
	callq	free@PLT
.LBB9_113:
###SPA## trampoline_fmt_64
	movq	80(%rsp), %rbp
	movq	88(%rsp), %r15
	testq	%r15, %r15
	jle	.LBB9_124
###SPA### trampoline_fmt_64
.LBB9_114:
###SPA## trampoline_fmt_64
	shlq	$5, %r15
	addq	%rbp, %r15
.LBB9_115:                              # =>This Inner Loop Header: Depth=1
###SPA## trampoline_fmt_64
	movq	24(%rbp), %rbx
	testq	%rbx, %rbx
	je	.LBB9_120
###SPA### trampoline_fmt_64
# %bb.116:                              #   in Loop: Header=BB9_115 Depth=1
	lock		subq	$1, (%rbx)
	jne	.LBB9_120
###SPA### trampoline_fmt_64
# %bb.117:                              #   in Loop: Header=BB9_115 Depth=1
	movq	8(%rbx), %rdi
	cmpq	$1, %rdi
	je	.LBB9_119
###SPA### trampoline_fmt_64
# %bb.118:                              #   in Loop: Header=BB9_115 Depth=1
	callq	free@PLT
.LBB9_119:                              #   in Loop: Header=BB9_115 Depth=1
###SPA## trampoline_fmt_64
	movq	%rbx, %rdi
	callq	free@PLT
.LBB9_120:                              #   in Loop: Header=BB9_115 Depth=1
###SPA## trampoline_fmt_64
	movq	(%rbp), %rdi
	cmpq	$1, %rdi
	je	.LBB9_122
###SPA### trampoline_fmt_64
# %bb.121:                              #   in Loop: Header=BB9_115 Depth=1
	callq	free@PLT
.LBB9_122:                              #   in Loop: Header=BB9_115 Depth=1
###SPA## trampoline_fmt_64
	addq	$32, %rbp
	cmpq	%r15, %rbp
	jb	.LBB9_115
###SPA### trampoline_fmt_64
# %bb.123:
	movq	80(%rsp), %rbp
.LBB9_124:
###SPA## trampoline_fmt_64
	cmpq	$32, %rbp
	je	.LBB9_126
###SPA### trampoline_fmt_64
# %bb.125:
	movq	%rbp, %rdi
	callq	free@PLT
.LBB9_126:
###SPA## trampoline_fmt_64
	movq	104(%rsp), %rbx
	movq	112(%rsp), %rax
	testq	%rax, %rax
	jle	.LBB9_135
###SPA### trampoline_fmt_64
.LBB9_127:
###SPA## trampoline_fmt_64
	leaq	(%rbx,%rax,8), %r15
	.p2align	4, 0x90
.LBB9_128:                              # =>This Inner Loop Header: Depth=1
###SPA## trampoline_fmt_64
	movq	(%rbx), %rbp
	testq	%rbp, %rbp
	je	.LBB9_133
###SPA### trampoline_fmt_64
# %bb.129:                              #   in Loop: Header=BB9_128 Depth=1
	lock		subq	$1, (%rbp)
	jne	.LBB9_133
###SPA### trampoline_fmt_64
# %bb.130:                              #   in Loop: Header=BB9_128 Depth=1
	movq	64(%rbp), %rdi
	leaq	88(%rbp), %rax
	cmpq	%rax, %rdi
	je	.LBB9_132
###SPA### trampoline_fmt_64
# %bb.131:                              #   in Loop: Header=BB9_128 Depth=1
	callq	free@PLT
.LBB9_132:                              #   in Loop: Header=BB9_128 Depth=1
###SPA## trampoline_fmt_64
	movq	%rbp, %rdi
	callq	free@PLT
.LBB9_133:                              #   in Loop: Header=BB9_128 Depth=1
###SPA## trampoline_fmt_64
	addq	$8, %rbx
	cmpq	%r15, %rbx
	jb	.LBB9_128
###SPA### trampoline_fmt_64
# %bb.134:
	movq	104(%rsp), %rbx
.LBB9_135:
###SPA## trampoline_fmt_64
	cmpq	$8, %rbx
	je	.LBB9_137
###SPA### trampoline_fmt_64
# %bb.136:
	movq	%rbx, %rdi
	callq	free@PLT
.LBB9_137:
###SPA## trampoline_fmt_64
	movq	128(%rsp), %rbx
	movq	136(%rsp), %rax
	testq	%rax, %rax
	jle	.LBB9_146
###SPA### trampoline_fmt_64
.LBB9_138:
###SPA## trampoline_fmt_64
	leaq	(%rbx,%rax,8), %r15
	.p2align	4, 0x90
.LBB9_139:                              # =>This Inner Loop Header: Depth=1
###SPA## trampoline_fmt_64
	movq	(%rbx), %rbp
	testq	%rbp, %rbp
	je	.LBB9_144
###SPA### trampoline_fmt_64
# %bb.140:                              #   in Loop: Header=BB9_139 Depth=1
	lock		subq	$1, (%rbp)
	jne	.LBB9_144
###SPA### trampoline_fmt_64
# %bb.141:                              #   in Loop: Header=BB9_139 Depth=1
	movq	48(%rbp), %rdi
	cmpq	$1, %rdi
	je	.LBB9_143
###SPA### trampoline_fmt_64
# %bb.142:                              #   in Loop: Header=BB9_139 Depth=1
	callq	free@PLT
.LBB9_143:                              #   in Loop: Header=BB9_139 Depth=1
###SPA## trampoline_fmt_64
	movq	%rbp, %rdi
	callq	free@PLT
.LBB9_144:                              #   in Loop: Header=BB9_139 Depth=1
###SPA## trampoline_fmt_64
	addq	$8, %rbx
	cmpq	%r15, %rbx
	jb	.LBB9_139
###SPA### trampoline_fmt_64
# %bb.145:
	movq	128(%rsp), %rbx
.LBB9_146:
###SPA## trampoline_fmt_64
	cmpq	$8, %rbx
	je	.LBB9_148
###SPA### trampoline_fmt_64
# %bb.147:
	movq	%rbx, %rdi
	callq	free@PLT
.LBB9_148:
###SPA## trampoline_fmt_64
	movq	152(%rsp), %rbx
	movq	160(%rsp), %rbp
	testq	%rbp, %rbp
	jle	.LBB9_154
###SPA### trampoline_fmt_64
.LBB9_149:
###SPA## trampoline_fmt_64
	shlq	$4, %rbp
	addq	%rbx, %rbp
	.p2align	4, 0x90
.LBB9_150:                              # =>This Inner Loop Header: Depth=1
###SPA## trampoline_fmt_64
	movq	(%rbx), %rdi
	movq	$0, (%rbx)
	testq	%rdi, %rdi
	je	.LBB9_152
###SPA### trampoline_fmt_64
# %bb.151:                              #   in Loop: Header=BB9_150 Depth=1
	callq	free@PLT
.LBB9_152:                              #   in Loop: Header=BB9_150 Depth=1
###SPA## trampoline_fmt_64
	addq	$16, %rbx
	cmpq	%rbp, %rbx
	jb	.LBB9_150
###SPA### trampoline_fmt_64
# %bb.153:
	movq	152(%rsp), %rbx
.LBB9_154:
###SPA## trampoline_fmt_64
	cmpq	$16, %rbx
	je	.LBB9_156
###SPA### trampoline_fmt_64
# %bb.155:
	movq	%rbx, %rdi
	callq	free@PLT
.LBB9_156:
###SPA## trampoline_fmt_64
	movq	176(%rsp), %rbx
	movq	184(%rsp), %rax
	testq	%rax, %rax
	jle	.LBB9_164
###SPA### trampoline_fmt_64
.LBB9_157:
###SPA## trampoline_fmt_64
	leaq	(%rax,%rax,2), %rax
	leaq	(%rbx,%rax,8), %rbp
	.p2align	4, 0x90
.LBB9_158:                              # =>This Inner Loop Header: Depth=1
###SPA## trampoline_fmt_64
	movq	8(%rbx), %rdi
	movq	$0, 8(%rbx)
	testq	%rdi, %rdi
	je	.LBB9_160
###SPA### trampoline_fmt_64
# %bb.159:                              #   in Loop: Header=BB9_158 Depth=1
	callq	free@PLT
.LBB9_160:                              #   in Loop: Header=BB9_158 Depth=1
###SPA## trampoline_fmt_64
	movq	(%rbx), %rdi
	movq	$0, (%rbx)
	testq	%rdi, %rdi
	je	.LBB9_162
###SPA### trampoline_fmt_64
# %bb.161:                              #   in Loop: Header=BB9_158 Depth=1
	callq	free@PLT
.LBB9_162:                              #   in Loop: Header=BB9_158 Depth=1
###SPA## trampoline_fmt_64
	addq	$24, %rbx
	cmpq	%rbp, %rbx
	jb	.LBB9_158
###SPA### trampoline_fmt_64
# %bb.163:
	movq	176(%rsp), %rbx
.LBB9_164:
###SPA## trampoline_fmt_64
	cmpq	$24, %rbx
	je	.LBB9_166
###SPA### trampoline_fmt_64
# %bb.165:
	movq	%rbx, %rdi
	callq	free@PLT
.LBB9_166:
###SPA## trampoline_fmt_64
	movq	$-4144, %rbx            # imm = 0xEFD0
	.p2align	4, 0x90
.LBB9_167:                              # =>This Inner Loop Header: Depth=1
###SPA## trampoline_fmt_64
	movq	-24(%r12), %rdi
	cmpq	%rdi, %r12
	je	.LBB9_169
###SPA### trampoline_fmt_64
# %bb.168:                              #   in Loop: Header=BB9_167 Depth=1
	callq	free@PLT
.LBB9_169:                              #   in Loop: Header=BB9_167 Depth=1
###SPA## trampoline_fmt_64
	addq	$-56, %r12
	addq	$56, %rbx
	jne	.LBB9_167
###SPA### trampoline_fmt_64
# %bb.170:
	movq	248(%rsp), %rdi
	cmpq	$8, %rdi
	je	.LBB9_172
###SPA### trampoline_fmt_64
# %bb.171:
	callq	free@PLT
.LBB9_172:
###SPA## trampoline_fmt_64
	movq	40(%rsp), %rdi          # 8-byte Reload
	cmpq	$1, %rdi
	je	.LBB9_174
###SPA### trampoline_fmt_64
# %bb.173:
	callq	free@PLT
.LBB9_174:
###SPA## trampoline_fmt_64
	movq	200(%rsp), %rdi
	cmpq	$1, %rdi
	je	.LBB9_176
###SPA### trampoline_fmt_64
.LBB9_175:
###SPA## trampoline_fmt_64
	callq	free@PLT
.LBB9_176:
###SPA## trampoline_fmt_64
	testq	%r13, %r13
	je	.LBB9_179
###SPA### trampoline_fmt_64
# %bb.177:
	lock		subq	$1, 8(%r13)
	jne	.LBB9_179
###SPA### trampoline_fmt_64
# %bb.178:
	addq	$8, %r13
	movq	-8(%r13), %rax
	addq	$-8, %r13
	movq	%r13, %rdi
	callq	*(%rax)
	movq	%r13, %rdi
	callq	free@PLT
.LBB9_179:
###SPA## trampoline_fmt_64
	movq	%fs:40, %rax
	cmpq	4416(%rsp), %rax
	jne	.LBB9_182
###SPA### trampoline_fmt_64
.LBB9_180:
###SPA## trampoline_fmt_64
	movq	%r14, %rax
	addq	$4424, %rsp             # imm = 0x1148
	.cfi_def_cfa_offset 56
	popq	%rbx
	.cfi_def_cfa_offset 48
	popq	%r12
	.cfi_def_cfa_offset 40
	popq	%r13
	.cfi_def_cfa_offset 32
	popq	%r14
	.cfi_def_cfa_offset 24
	popq	%r15
	.cfi_def_cfa_offset 16
	popq	%rbp
	.cfi_def_cfa_offset 8
	movq	%gs:(8), %r11
	movq	(%rsp, %r11, 1), %r11
	subq	%gs:(16), %r11
	addq	$8, %rsp
	jmpq	*%r11
.LBB9_108:
	.cfi_def_cfa_offset 4480
###SPA## trampoline_fmt_64
	movq	(%rsp), %r13            # 8-byte Reload
	movq	%r15, (%r14)
	testq	%r15, %r15
	jne	.LBB9_109
###SPA### trampoline_fmt_64
	jmp	.LBB9_110
.LBB9_181:
###SPA## trampoline_fmt_64
	movq	$0, (%r14)
	movq	%fs:40, %rax
	cmpq	4416(%rsp), %rax
	je	.LBB9_180
###SPA### trampoline_fmt_64
.LBB9_182:
###SPA## trampoline_fmt_64
	callq	__stack_chk_fail@PLT
.LBB9_184:
###SPA## trampoline_fmt_64
	xorl	%r15d, %r15d
	movq	(%rsp), %r13            # 8-byte Reload
	movq	%r15, (%r14)
	testq	%r15, %r15
	jne	.LBB9_109
###SPA### trampoline_fmt_64
	jmp	.LBB9_110
.LBB9_185:
###SPA## trampoline_fmt_64
	leaq	.L.str.3(%rip), %rax
	movq	gMozCrashReason@GOTPCREL(%rip), %rcx
	movq	%rax, (%rcx)
	movl	$299, 0                 # imm = 0x12B
	callq	abort@PLT
.LBB9_186:
###SPA## trampoline_fmt_64
	leaq	.L.str.5(%rip), %rax
	movq	gMozCrashReason@GOTPCREL(%rip), %rcx
	movq	%rax, (%rcx)
	movl	$300, 0                 # imm = 0x12C
	callq	abort@PLT
.LBB9_187:
###SPA## trampoline_fmt_64
	leaq	.L.str.6(%rip), %rax
	movq	gMozCrashReason@GOTPCREL(%rip), %rcx
	movq	%rax, (%rcx)
	movl	$306, 0                 # imm = 0x132
	callq	abort@PLT
.Lfunc_end9:
	.size	_ZN2js4wasm6Module11deserializeEPKhmPNS0_8MetadataE, .Lfunc_end9-_ZN2js4wasm6Module11deserializeEPKhmPNS0_8MetadataE
	.cfi_endproc
                                        # -- End function
	.section	.text._ZNK2js4wasm6Module12createObjectEP9JSContext,"ax",@progbits
	.hidden	_ZNK2js4wasm6Module12createObjectEP9JSContext # -- Begin function _ZNK2js4wasm6Module12createObjectEP9JSContext
	.globl	_ZNK2js4wasm6Module12createObjectEP9JSContext
	.p2align	4, 0x90
	.type	_ZNK2js4wasm6Module12createObjectEP9JSContext,@function
_ZNK2js4wasm6Module12createObjectEP9JSContext: # @_ZNK2js4wasm6Module12createObjectEP9JSContext
	.cfi_startproc
	movq	(%rsp), %r10
	addq	%gs:(16), %r10
	movq	%gs:(8), %r11
	movq	%r10, (%rsp, %r11, 1)
# %bb.0:
###SPA## trampoline_fmt_64
	pushq	%r14
	.cfi_def_cfa_offset 16
	pushq	%rbx
	.cfi_def_cfa_offset 24
	subq	$40, %rsp
	.cfi_def_cfa_offset 64
	.cfi_offset %rbx, -24
	.cfi_offset %r14, -16
	movq	%rsi, %rbx
	movq	%rdi, %r14
	movq	%fs:40, %rax
	movq	%rax, 32(%rsp)
	movq	152(%rsi), %rsi
	movq	88(%rsi), %rax
	movq	8(%rax), %rcx
	movq	16(%rax), %rax
	movzbl	19(%rcx), %ecx
	andl	$31, %ecx
	movl	$77, %edx
	subl	%ecx, %edx
	movabsq	$-1829587348619264, %rdi # imm = 0xFFF9800000000000
	cmpq	%rdi, (%rax,%rdx,8)
	jne	.LBB10_4
###SPA### trampoline_fmt_64
# %bb.1:
	addq	$88, %rsi
	movl	$72, %edx
	movl	$1, %ecx
	movq	%rbx, %rdi
	callq	_ZN2js12GlobalObject18resolveConstructorEP9JSContextN2JS6HandleIPS0_EE10JSProtoKeyNS0_17IfClassIsDisabledE
	testb	%al, %al
	je	.LBB10_2
###SPA### trampoline_fmt_64
# %bb.3:
	movq	152(%rbx), %rax
	movq	88(%rax), %rax
	movq	8(%rax), %rcx
	movq	16(%rax), %rax
	movzbl	19(%rcx), %ecx
	andl	$31, %ecx
.LBB10_4:
###SPA## trampoline_fmt_64
	movl	$160, %edx
	subl	%ecx, %edx
	movabsq	$-562949953421312, %rcx # imm = 0xFFFE000000000000
	xorq	(%rax,%rdx,8), %rcx
	leaq	24(%rsp), %rdx
	movq	%rcx, 24(%rsp)
	leaq	24(%rbx), %rax
	movq	%rax, 8(%rsp)
	movq	24(%rbx), %rax
	movq	%rax, 16(%rsp)
	leaq	8(%rsp), %rax
	movq	%rax, 24(%rbx)
	movq	%rbx, %rdi
	movq	%r14, %rsi
	callq	_ZN2js16WasmModuleObject6createEP9JSContextRKNS_4wasm6ModuleEN2JS6HandleIP8JSObjectEE
	movq	8(%rsp), %rcx
	movq	16(%rsp), %rdx
	movq	%rdx, (%rcx)
	movq	%fs:40, %rcx
	cmpq	32(%rsp), %rcx
	jne	.LBB10_7
###SPA### trampoline_fmt_64
.LBB10_6:
###SPA## trampoline_fmt_64
	addq	$40, %rsp
	.cfi_def_cfa_offset 24
	popq	%rbx
	.cfi_def_cfa_offset 16
	popq	%r14
	.cfi_def_cfa_offset 8
	movq	%gs:(8), %r11
	movq	(%rsp, %r11, 1), %r11
	subq	%gs:(16), %r11
	addq	$8, %rsp
	jmpq	*%r11
.LBB10_2:
	.cfi_def_cfa_offset 64
###SPA## trampoline_fmt_64
	xorl	%eax, %eax
	movq	%fs:40, %rcx
	cmpq	32(%rsp), %rcx
	je	.LBB10_6
###SPA### trampoline_fmt_64
.LBB10_7:
###SPA## trampoline_fmt_64
	callq	__stack_chk_fail@PLT
.Lfunc_end10:
	.size	_ZNK2js4wasm6Module12createObjectEP9JSContext, .Lfunc_end10-_ZNK2js4wasm6Module12createObjectEP9JSContext
	.cfi_endproc
                                        # -- End function
	.section	.text._ZNK2js4wasm6Module20createObjectForAsmJSEP9JSContext,"ax",@progbits
	.hidden	_ZNK2js4wasm6Module20createObjectForAsmJSEP9JSContext # -- Begin function _ZNK2js4wasm6Module20createObjectForAsmJSEP9JSContext
	.globl	_ZNK2js4wasm6Module20createObjectForAsmJSEP9JSContext
	.p2align	4, 0x90
	.type	_ZNK2js4wasm6Module20createObjectForAsmJSEP9JSContext,@function
_ZNK2js4wasm6Module20createObjectForAsmJSEP9JSContext: # @_ZNK2js4wasm6Module20createObjectForAsmJSEP9JSContext
	.cfi_startproc
	movq	(%rsp), %r10
	addq	%gs:(16), %r10
	movq	%gs:(8), %r11
	movq	%r10, (%rsp, %r11, 1)
# %bb.0:
###SPA## trampoline_fmt_64
	movq	%rdi, %rax
	leaq	_ZZN2JS6HandleIP8JSObjectEC1EDnE14ConstNullValue(%rip), %rdx
	movq	%rsi, %rdi
	movq	%rax, %rsi
	jmp	_ZN2js16WasmModuleObject6createEP9JSContextRKNS_4wasm6ModuleEN2JS6HandleIP8JSObjectEE # TAILCALL
.Lfunc_end11:
	.size	_ZNK2js4wasm6Module20createObjectForAsmJSEP9JSContext, .Lfunc_end11-_ZNK2js4wasm6Module20createObjectForAsmJSEP9JSContext
	.cfi_endproc
                                        # -- End function
	.section	.text._ZN2js4wasm19IsHugeMemoryEnabledEv,"ax",@progbits
	.hidden	_ZN2js4wasm19IsHugeMemoryEnabledEv # -- Begin function _ZN2js4wasm19IsHugeMemoryEnabledEv
	.globl	_ZN2js4wasm19IsHugeMemoryEnabledEv
	.p2align	4, 0x90
	.type	_ZN2js4wasm19IsHugeMemoryEnabledEv,@function
_ZN2js4wasm19IsHugeMemoryEnabledEv:     # @_ZN2js4wasm19IsHugeMemoryEnabledEv
	.cfi_startproc
	movq	(%rsp), %r10
	addq	%gs:(16), %r10
	movq	%gs:(8), %r11
	movq	%r10, (%rsp, %r11, 1)
# %bb.0:
###SPA## trampoline_fmt_64
	pushq	%r14
	.cfi_def_cfa_offset 16
	pushq	%rbx
	.cfi_def_cfa_offset 24
	pushq	%rax
	.cfi_def_cfa_offset 32
	.cfi_offset %rbx, -24
	.cfi_offset %r14, -16
	movb	_ZGVZN2js4wasm19IsHugeMemoryEnabledEvE7enabled(%rip), %al
	testb	%al, %al
	je	.LBB12_1
###SPA### trampoline_fmt_64
.LBB12_3:
###SPA## trampoline_fmt_64
	movb	_ZZN2js4wasm19IsHugeMemoryEnabledEvE7enabled(%rip), %al
	addq	$8, %rsp
	.cfi_def_cfa_offset 24
	popq	%rbx
	.cfi_def_cfa_offset 16
	popq	%r14
	.cfi_def_cfa_offset 8
	movq	%gs:(8), %r11
	movq	(%rsp, %r11, 1), %r11
	subq	%gs:(16), %r11
	addq	$8, %rsp
	jmpq	*%r11
.LBB12_1:
	.cfi_def_cfa_offset 32
###SPA## trampoline_fmt_64
	leaq	_ZGVZN2js4wasm19IsHugeMemoryEnabledEvE7enabled(%rip), %rdi
	callq	__cxa_guard_acquire@PLT
	testl	%eax, %eax
	je	.LBB12_3
###SPA### trampoline_fmt_64
# %bb.2:
	leaq	sHugeMemoryEnabled(%rip), %r14
	movq	%r14, %rdi
	callq	_ZN7mozilla6detail9MutexImpl4lockEv@PLT
	movb	$1, sHugeMemoryEnabled+41(%rip)
	movb	sHugeMemoryEnabled+40(%rip), %bl
	movq	%r14, %rdi
	callq	_ZN7mozilla6detail9MutexImpl6unlockEv@PLT
	movb	%bl, _ZZN2js4wasm19IsHugeMemoryEnabledEvE7enabled(%rip)
	leaq	_ZGVZN2js4wasm19IsHugeMemoryEnabledEvE7enabled(%rip), %rdi
	callq	__cxa_guard_release@PLT
	jmp	.LBB12_3
.Lfunc_end12:
	.size	_ZN2js4wasm19IsHugeMemoryEnabledEv, .Lfunc_end12-_ZN2js4wasm19IsHugeMemoryEnabledEv
	.cfi_endproc
                                        # -- End function
	.section	.text._ZNK2js4wasm6Module13addSizeOfMiscEPFmPKvEPN7mozilla7HashSetIPKNS0_8MetadataENS6_13DefaultHasherISA_vEENS_17SystemAllocPolicyEEEPNS7_IPKNS0_4CodeENSB_ISI_vEESD_EEPmSM_,"ax",@progbits
	.hidden	_ZNK2js4wasm6Module13addSizeOfMiscEPFmPKvEPN7mozilla7HashSetIPKNS0_8MetadataENS6_13DefaultHasherISA_vEENS_17SystemAllocPolicyEEEPNS7_IPKNS0_4CodeENSB_ISI_vEESD_EEPmSM_ # -- Begin function _ZNK2js4wasm6Module13addSizeOfMiscEPFmPKvEPN7mozilla7HashSetIPKNS0_8MetadataENS6_13DefaultHasherISA_vEENS_17SystemAllocPolicyEEEPNS7_IPKNS0_4CodeENSB_ISI_vEESD_EEPmSM_
	.globl	_ZNK2js4wasm6Module13addSizeOfMiscEPFmPKvEPN7mozilla7HashSetIPKNS0_8MetadataENS6_13DefaultHasherISA_vEENS_17SystemAllocPolicyEEEPNS7_IPKNS0_4CodeENSB_ISI_vEESD_EEPmSM_
	.p2align	4, 0x90
	.type	_ZNK2js4wasm6Module13addSizeOfMiscEPFmPKvEPN7mozilla7HashSetIPKNS0_8MetadataENS6_13DefaultHasherISA_vEENS_17SystemAllocPolicyEEEPNS7_IPKNS0_4CodeENSB_ISI_vEESD_EEPmSM_,@function
_ZNK2js4wasm6Module13addSizeOfMiscEPFmPKvEPN7mozilla7HashSetIPKNS0_8MetadataENS6_13DefaultHasherISA_vEENS_17SystemAllocPolicyEEEPNS7_IPKNS0_4CodeENSB_ISI_vEESD_EEPmSM_: # @_ZNK2js4wasm6Module13addSizeOfMiscEPFmPKvEPN7mozilla7HashSetIPKNS0_8MetadataENS6_13DefaultHasherISA_vEENS_17SystemAllocPolicyEEEPNS7_IPKNS0_4CodeENSB_ISI_vEESD_EEPmSM_
	.cfi_startproc
	movq	(%rsp), %r10
	addq	%gs:(16), %r10
	movq	%gs:(8), %r11
	movq	%r10, (%rsp, %r11, 1)
# %bb.0:
###SPA## trampoline_fmt_64
	pushq	%rbp
	.cfi_def_cfa_offset 16
	pushq	%r15
	.cfi_def_cfa_offset 24
	pushq	%r14
	.cfi_def_cfa_offset 32
	pushq	%r13
	.cfi_def_cfa_offset 40
	pushq	%r12
	.cfi_def_cfa_offset 48
	pushq	%rbx
	.cfi_def_cfa_offset 56
	subq	$40, %rsp
	.cfi_def_cfa_offset 96
	.cfi_offset %rbx, -56
	.cfi_offset %r12, -48
	.cfi_offset %r13, -40
	.cfi_offset %r14, -32
	.cfi_offset %r15, -24
	.cfi_offset %rbp, -16
	movq	%r9, %r14
	movq	%rsi, %r13
	movq	%rdi, %rbp
	movq	16(%rdi), %rdi
	callq	_ZNK2js4wasm4Code22addSizeOfMiscIfNotSeenEPFmPKvEPN7mozilla7HashSetIPKNS0_8MetadataENS6_13DefaultHasherISA_vEENS_17SystemAllocPolicyEEEPNS7_IPKS1_NSB_ISH_vEESD_EEPmSL_
	movq	%rbp, %rdi
	callq	*%r13
	movq	24(%rbp), %rdi
	cmpq	$24, %rdi
	movq	%rax, 32(%rsp)          # 8-byte Spill
	je	.LBB13_1
###SPA### trampoline_fmt_64
# %bb.2:
	callq	*%r13
	movq	%rax, %r15
	movq	24(%rbp), %rbx
	movq	32(%rbp), %rax
	testq	%rax, %rax
	movq	%rbp, 8(%rsp)           # 8-byte Spill
	jne	.LBB13_4
###SPA### trampoline_fmt_64
	jmp	.LBB13_6
.LBB13_1:
###SPA## trampoline_fmt_64
	xorl	%r15d, %r15d
	movl	$24, %ebx
	movq	32(%rbp), %rax
	testq	%rax, %rax
	movq	%rbp, 8(%rsp)           # 8-byte Spill
	je	.LBB13_6
###SPA### trampoline_fmt_64
.LBB13_4:
###SPA## trampoline_fmt_64
	shlq	$3, %rax
	leaq	(%rax,%rax,2), %rbp
	.p2align	4, 0x90
.LBB13_5:                               # =>This Inner Loop Header: Depth=1
###SPA## trampoline_fmt_64
	movq	%rbx, %rdi
	movq	%r13, %rsi
	callq	_ZNK2js4wasm6Import19sizeOfExcludingThisEPFmPKvE
	addq	%rax, %r15
	addq	$24, %rbx
	addq	$-24, %rbp
	jne	.LBB13_5
###SPA### trampoline_fmt_64
.LBB13_6:
###SPA## trampoline_fmt_64
	movq	8(%rsp), %rbp           # 8-byte Reload
	movq	48(%rbp), %rdi
	cmpq	$16, %rdi
	je	.LBB13_7
###SPA### trampoline_fmt_64
# %bb.8:
	callq	*%r13
	movq	%rax, %r12
	movq	48(%rbp), %rbx
	movq	56(%rbp), %rbp
	testq	%rbp, %rbp
	jne	.LBB13_10
###SPA### trampoline_fmt_64
	jmp	.LBB13_12
.LBB13_7:
###SPA## trampoline_fmt_64
	xorl	%r12d, %r12d
	movl	$16, %ebx
	movq	56(%rbp), %rbp
	testq	%rbp, %rbp
	je	.LBB13_12
###SPA### trampoline_fmt_64
.LBB13_10:
###SPA## trampoline_fmt_64
	shlq	$4, %rbp
	.p2align	4, 0x90
.LBB13_11:                              # =>This Inner Loop Header: Depth=1
###SPA## trampoline_fmt_64
	movq	%rbx, %rdi
	movq	%r13, %rsi
	callq	_ZNK2js4wasm6Export19sizeOfExcludingThisEPFmPKvE
	addq	%rax, %r12
	addq	$16, %rbx
	addq	$-16, %rbp
	jne	.LBB13_11
###SPA### trampoline_fmt_64
.LBB13_12:
###SPA## trampoline_fmt_64
	movq	8(%rsp), %rbx           # 8-byte Reload
	movq	72(%rbx), %rdi
	cmpq	$8, %rdi
	movq	%r13, (%rsp)            # 8-byte Spill
	movq	%r14, 24(%rsp)          # 8-byte Spill
	je	.LBB13_13
###SPA### trampoline_fmt_64
# %bb.14:
	callq	*%r13
	movq	%rax, %r13
	movq	72(%rbx), %rbp
	movq	80(%rbx), %rcx
	movq	%rcx, 16(%rsp)          # 8-byte Spill
	testq	%rcx, %rcx
	jne	.LBB13_16
###SPA### trampoline_fmt_64
	jmp	.LBB13_18
.LBB13_13:
###SPA## trampoline_fmt_64
	xorl	%r13d, %r13d
	movl	$8, %ebp
	movq	80(%rbx), %rcx
	movq	%rcx, 16(%rsp)          # 8-byte Spill
	testq	%rcx, %rcx
	je	.LBB13_18
###SPA### trampoline_fmt_64
.LBB13_16:
###SPA## trampoline_fmt_64
	shlq	$3, 16(%rsp)            # 8-byte Folded Spill
	xorl	%ebx, %ebx
	movq	(%rsp), %r14            # 8-byte Reload
	.p2align	4, 0x90
.LBB13_17:                              # =>This Inner Loop Header: Depth=1
###SPA## trampoline_fmt_64
	movq	(%rbp,%rbx), %rdi
	movq	%r14, %rsi
	callq	_ZNK2js4wasm11DataSegment19sizeOfExcludingThisEPFmPKvE
	addq	%rax, %r13
	addq	$8, %rbx
	cmpq	%rbx, 16(%rsp)          # 8-byte Folded Reload
	jne	.LBB13_17
###SPA### trampoline_fmt_64
.LBB13_18:
###SPA## trampoline_fmt_64
	addq	32(%rsp), %r15          # 8-byte Folded Reload
	movq	8(%rsp), %rbx           # 8-byte Reload
	movq	96(%rbx), %rdi
	cmpq	$8, %rdi
	je	.LBB13_19
###SPA### trampoline_fmt_64
# %bb.20:
	callq	*(%rsp)                 # 8-byte Folded Reload
	movq	%rax, %r14
	movq	96(%rbx), %rax
	jmp	.LBB13_21
.LBB13_19:
###SPA## trampoline_fmt_64
	xorl	%r14d, %r14d
	movl	$8, %eax
.LBB13_21:
###SPA## trampoline_fmt_64
	addq	%r12, %r15
	movq	104(%rbx), %r12
	testq	%r12, %r12
	movq	%r15, 16(%rsp)          # 8-byte Spill
	je	.LBB13_24
###SPA### trampoline_fmt_64
# %bb.22:
	shlq	$3, %r12
	xorl	%ebx, %ebx
	movq	(%rsp), %rbp            # 8-byte Reload
	.p2align	4, 0x90
.LBB13_23:                              # =>This Inner Loop Header: Depth=1
###SPA## trampoline_fmt_64
	movq	(%rax,%rbx), %rdi
	movq	%rbp, %rsi
	movq	%rax, %r15
	callq	_ZNK2js4wasm11ElemSegment19sizeOfExcludingThisEPFmPKvE
	addq	%rax, %r14
	movq	%r15, %rax
	addq	$8, %rbx
	cmpq	%rbx, %r12
	jne	.LBB13_23
###SPA### trampoline_fmt_64
.LBB13_24:
###SPA## trampoline_fmt_64
	movq	16(%rsp), %r15          # 8-byte Reload
	addq	%r13, %r15
	movq	8(%rsp), %rbp           # 8-byte Reload
	movq	120(%rbp), %rdi
	cmpq	$32, %rdi
	je	.LBB13_25
###SPA### trampoline_fmt_64
# %bb.26:
	movq	(%rsp), %r13            # 8-byte Reload
	callq	*%r13
	movq	%rax, %r12
	movq	120(%rbp), %rbx
	addq	%r14, %r15
	movq	128(%rbp), %rbp
	testq	%rbp, %rbp
	je	.LBB13_28
###SPA### trampoline_fmt_64
.LBB13_29:
###SPA## trampoline_fmt_64
	shlq	$5, %rbp
	movq	24(%rsp), %r14          # 8-byte Reload
	.p2align	4, 0x90
.LBB13_30:                              # =>This Inner Loop Header: Depth=1
###SPA## trampoline_fmt_64
	movq	%rbx, %rdi
	movq	%r13, %rsi
	callq	_ZNK2js4wasm13CustomSection19sizeOfExcludingThisEPFmPKvE
	addq	%rax, %r12
	addq	$32, %rbx
	addq	$-32, %rbp
	jne	.LBB13_30
###SPA### trampoline_fmt_64
	jmp	.LBB13_31
.LBB13_25:
###SPA## trampoline_fmt_64
	xorl	%r12d, %r12d
	movl	$32, %ebx
	movq	(%rsp), %r13            # 8-byte Reload
	addq	%r14, %r15
	movq	128(%rbp), %rbp
	testq	%rbp, %rbp
	jne	.LBB13_29
###SPA### trampoline_fmt_64
.LBB13_28:
###SPA## trampoline_fmt_64
	movq	24(%rsp), %r14          # 8-byte Reload
.LBB13_31:
###SPA## trampoline_fmt_64
	addq	%r12, %r15
	addq	(%r14), %r15
	movq	%r15, (%r14)
	movq	8(%rsp), %rax           # 8-byte Reload
	movq	152(%rax), %rax
	testq	%rax, %rax
	je	.LBB13_36
###SPA### trampoline_fmt_64
# %bb.32:
	movq	(%rax), %rdi
	cmpq	$1, %rdi
	je	.LBB13_33
###SPA### trampoline_fmt_64
# %bb.34:
	callq	*%r13
	movq	(%r14), %r15
	jmp	.LBB13_35
.LBB13_33:
###SPA## trampoline_fmt_64
	xorl	%eax, %eax
.LBB13_35:
###SPA## trampoline_fmt_64
	addq	%rax, %r15
	movq	%r15, (%r14)
.LBB13_36:
###SPA## trampoline_fmt_64
	addq	$40, %rsp
	.cfi_def_cfa_offset 56
	popq	%rbx
	.cfi_def_cfa_offset 48
	popq	%r12
	.cfi_def_cfa_offset 40
	popq	%r13
	.cfi_def_cfa_offset 32
	popq	%r14
	.cfi_def_cfa_offset 24
	popq	%r15
	.cfi_def_cfa_offset 16
	popq	%rbp
	.cfi_def_cfa_offset 8
	movq	%gs:(8), %r11
	movq	(%rsp, %r11, 1), %r11
	subq	%gs:(16), %r11
	addq	$8, %rsp
	jmpq	*%r11
.Lfunc_end13:
	.size	_ZNK2js4wasm6Module13addSizeOfMiscEPFmPKvEPN7mozilla7HashSetIPKNS0_8MetadataENS6_13DefaultHasherISA_vEENS_17SystemAllocPolicyEEEPNS7_IPKNS0_4CodeENSB_ISI_vEESD_EEPmSM_, .Lfunc_end13-_ZNK2js4wasm6Module13addSizeOfMiscEPFmPKvEPN7mozilla7HashSetIPKNS0_8MetadataENS6_13DefaultHasherISA_vEENS_17SystemAllocPolicyEEEPNS7_IPKNS0_4CodeENSB_ISI_vEESD_EEPmSM_
	.cfi_endproc
                                        # -- End function
	.section	.text._ZN2js4wasm6Module30initGCMallocBytesExcludingCodeEv,"ax",@progbits
	.hidden	_ZN2js4wasm6Module30initGCMallocBytesExcludingCodeEv # -- Begin function _ZN2js4wasm6Module30initGCMallocBytesExcludingCodeEv
	.globl	_ZN2js4wasm6Module30initGCMallocBytesExcludingCodeEv
	.p2align	4, 0x90
	.type	_ZN2js4wasm6Module30initGCMallocBytesExcludingCodeEv,@function
_ZN2js4wasm6Module30initGCMallocBytesExcludingCodeEv: # @_ZN2js4wasm6Module30initGCMallocBytesExcludingCodeEv
	.cfi_startproc
	movq	(%rsp), %r10
	addq	%gs:(16), %r10
	movq	%gs:(8), %r11
	movq	%r10, (%rsp, %r11, 1)
# %bb.0:
###SPA## trampoline_fmt_64
	pushq	%r15
	.cfi_def_cfa_offset 16
	pushq	%r14
	.cfi_def_cfa_offset 24
	pushq	%r13
	.cfi_def_cfa_offset 32
	pushq	%r12
	.cfi_def_cfa_offset 40
	pushq	%rbx
	.cfi_def_cfa_offset 48
	.cfi_offset %rbx, -48
	.cfi_offset %r12, -40
	.cfi_offset %r13, -32
	.cfi_offset %r14, -24
	.cfi_offset %r15, -16
	movq	%rdi, %r15
	cmpq	$0, 32(%rdi)
	je	.LBB14_1
###SPA### trampoline_fmt_64
# %bb.2:
	movl	$4, %r14d
	xorl	%r12d, %r12d
	xorl	%ebx, %ebx
	.p2align	4, 0x90
.LBB14_3:                               # =>This Inner Loop Header: Depth=1
###SPA## trampoline_fmt_64
	movq	24(%r15), %rdi
	addq	%r12, %rdi
	callq	_ZNK2js4wasm6Import14serializedSizeEv
	addq	%rax, %r14
	addq	$1, %rbx
	addq	$24, %r12
	cmpq	32(%r15), %rbx
	jb	.LBB14_3
###SPA### trampoline_fmt_64
# %bb.4:
	addq	$200, %r14
	cmpq	$0, 56(%r15)
	je	.LBB14_6
###SPA### trampoline_fmt_64
.LBB14_7:
###SPA## trampoline_fmt_64
	movl	$4, %r12d
	xorl	%r13d, %r13d
	xorl	%ebx, %ebx
	.p2align	4, 0x90
.LBB14_8:                               # =>This Inner Loop Header: Depth=1
###SPA## trampoline_fmt_64
	movq	48(%r15), %rdi
	addq	%r13, %rdi
	callq	_ZNK2js4wasm6Export14serializedSizeEv
	addq	%rax, %r12
	addq	$1, %rbx
	addq	$16, %r13
	cmpq	56(%r15), %rbx
	jb	.LBB14_8
###SPA### trampoline_fmt_64
# %bb.9:
	addq	%r12, %r14
	cmpq	$0, 80(%r15)
	je	.LBB14_10
###SPA### trampoline_fmt_64
.LBB14_11:
###SPA## trampoline_fmt_64
	movl	$4, %r12d
	xorl	%ebx, %ebx
	.p2align	4, 0x90
.LBB14_12:                              # =>This Inner Loop Header: Depth=1
###SPA## trampoline_fmt_64
	movq	72(%r15), %rax
	movq	(%rax,%rbx,8), %rdi
	callq	_ZNK2js4wasm11DataSegment14serializedSizeEv
	addq	%rax, %r12
	addq	$1, %rbx
	cmpq	80(%r15), %rbx
	jb	.LBB14_12
###SPA### trampoline_fmt_64
# %bb.13:
	addq	%r12, %r14
	cmpq	$0, 104(%r15)
	je	.LBB14_14
###SPA### trampoline_fmt_64
.LBB14_15:
###SPA## trampoline_fmt_64
	movl	$4, %r12d
	xorl	%ebx, %ebx
	.p2align	4, 0x90
.LBB14_16:                              # =>This Inner Loop Header: Depth=1
###SPA## trampoline_fmt_64
	movq	96(%r15), %rax
	movq	(%rax,%rbx,8), %rdi
	callq	_ZNK2js4wasm11ElemSegment14serializedSizeEv
	addq	%rax, %r12
	addq	$1, %rbx
	cmpq	104(%r15), %rbx
	jb	.LBB14_16
###SPA### trampoline_fmt_64
# %bb.17:
	addq	%r12, %r14
	cmpq	$0, 128(%r15)
	je	.LBB14_18
###SPA### trampoline_fmt_64
.LBB14_19:
###SPA## trampoline_fmt_64
	movl	$4, %r12d
	xorl	%r13d, %r13d
	xorl	%ebx, %ebx
	.p2align	4, 0x90
.LBB14_20:                              # =>This Inner Loop Header: Depth=1
###SPA## trampoline_fmt_64
	movq	120(%r15), %rdi
	addq	%r13, %rdi
	callq	_ZNK2js4wasm13CustomSection14serializedSizeEv
	addq	%rax, %r12
	addq	$1, %rbx
	addq	$32, %r13
	cmpq	128(%r15), %rbx
	jb	.LBB14_20
###SPA### trampoline_fmt_64
	jmp	.LBB14_21
.LBB14_1:
###SPA## trampoline_fmt_64
	movl	$204, %r14d
	cmpq	$0, 56(%r15)
	jne	.LBB14_7
###SPA### trampoline_fmt_64
.LBB14_6:
###SPA## trampoline_fmt_64
	movl	$4, %r12d
	addq	%r12, %r14
	cmpq	$0, 80(%r15)
	jne	.LBB14_11
###SPA### trampoline_fmt_64
.LBB14_10:
###SPA## trampoline_fmt_64
	movl	$4, %r12d
	addq	%r12, %r14
	cmpq	$0, 104(%r15)
	jne	.LBB14_15
###SPA### trampoline_fmt_64
.LBB14_14:
###SPA## trampoline_fmt_64
	movl	$4, %r12d
	addq	%r12, %r14
	cmpq	$0, 128(%r15)
	jne	.LBB14_19
###SPA### trampoline_fmt_64
.LBB14_18:
###SPA## trampoline_fmt_64
	movl	$4, %r12d
.LBB14_21:
###SPA## trampoline_fmt_64
	addq	%r12, %r14
	movq	%r14, 192(%r15)
	popq	%rbx
	.cfi_def_cfa_offset 40
	popq	%r12
	.cfi_def_cfa_offset 32
	popq	%r13
	.cfi_def_cfa_offset 24
	popq	%r14
	.cfi_def_cfa_offset 16
	popq	%r15
	.cfi_def_cfa_offset 8
	movq	%gs:(8), %r11
	movq	(%rsp, %r11, 1), %r11
	subq	%gs:(16), %r11
	addq	$8, %rsp
	jmpq	*%r11
.Lfunc_end14:
	.size	_ZN2js4wasm6Module30initGCMallocBytesExcludingCodeEv, .Lfunc_end14-_ZN2js4wasm6Module30initGCMallocBytesExcludingCodeEv
	.cfi_endproc
                                        # -- End function
	.section	.text._ZNK2js4wasm6Module11extractCodeEP9JSContextNS0_4TierEN2JS13MutableHandleINS5_5ValueEEE,"ax",@progbits
	.hidden	_ZNK2js4wasm6Module11extractCodeEP9JSContextNS0_4TierEN2JS13MutableHandleINS5_5ValueEEE # -- Begin function _ZNK2js4wasm6Module11extractCodeEP9JSContextNS0_4TierEN2JS13MutableHandleINS5_5ValueEEE
	.globl	_ZNK2js4wasm6Module11extractCodeEP9JSContextNS0_4TierEN2JS13MutableHandleINS5_5ValueEEE
	.p2align	4, 0x90
	.type	_ZNK2js4wasm6Module11extractCodeEP9JSContextNS0_4TierEN2JS13MutableHandleINS5_5ValueEEE,@function
_ZNK2js4wasm6Module11extractCodeEP9JSContextNS0_4TierEN2JS13MutableHandleINS5_5ValueEEE: # @_ZNK2js4wasm6Module11extractCodeEP9JSContextNS0_4TierEN2JS13MutableHandleINS5_5ValueEEE
	.cfi_startproc
	movq	(%rsp), %r10
	addq	%gs:(16), %r10
	movq	%gs:(8), %r11
	movq	%r10, (%rsp, %r11, 1)
# %bb.0:
###SPA## trampoline_fmt_64
	pushq	%rbp
	.cfi_def_cfa_offset 16
	pushq	%r15
	.cfi_def_cfa_offset 24
	pushq	%r14
	.cfi_def_cfa_offset 32
	pushq	%r13
	.cfi_def_cfa_offset 40
	pushq	%r12
	.cfi_def_cfa_offset 48
	pushq	%rbx
	.cfi_def_cfa_offset 56
	subq	$168, %rsp
	.cfi_def_cfa_offset 224
	.cfi_offset %rbx, -56
	.cfi_offset %r12, -48
	.cfi_offset %r13, -40
	.cfi_offset %r14, -32
	.cfi_offset %r15, -24
	.cfi_offset %rbp, -16
	movq	%rcx, 8(%rsp)           # 8-byte Spill
	movl	%edx, %r13d
	movq	%rsi, %rbx
	movq	%rdi, %r12
	movq	%fs:40, %rax
	movq	%rax, 160(%rsp)
	movq	_ZN2js16FunctionClassPtrE(%rip), %rcx
	leaq	_ZN2js11PlainObject6class_E(%rip), %rax
	cmpq	%rax, %rcx
	je	.LBB15_3
###SPA### trampoline_fmt_64
# %bb.1:
	movl	_ZN2js11PlainObject6class_E+8(%rip), %eax
	movzbl	%ah, %ecx
	andl	$1, %eax
	addq	%rcx, %rax
	movb	$16, %cl
	cmpl	$16, %eax
	ja	.LBB15_4
###SPA### trampoline_fmt_64
# %bb.2:
	leaq	_ZN2js2gc16slotsToThingKindE(%rip), %rcx
	movb	(%rax,%rcx), %cl
	jmp	.LBB15_4
.LBB15_3:
###SPA## trampoline_fmt_64
	xorl	%ecx, %ecx
.LBB15_4:
###SPA## trampoline_fmt_64
	movzbl	%cl, %ecx
	leaq	_ZN2js11PlainObject6class_E(%rip), %rsi
	leaq	_ZZN2JS6HandleIP8JSObjectEC1EDnE14ConstNullValue(%rip), %rdx
	xorl	%ebp, %ebp
	xorl	%r8d, %r8d
	movq	%rbx, %rdi
	callq	_ZN2js23NewObjectWithClassProtoEP9JSContextPK7JSClassN2JS6HandleIP8JSObjectEENS_2gc9AllocKindENS_13NewObjectKindE
	movq	%rax, 152(%rsp)
	leaq	24(%rbx), %r14
	movq	%r14, 136(%rsp)
	movq	24(%rbx), %rcx
	movq	%rcx, 144(%rsp)
	leaq	136(%rsp), %rcx
	movq	%rcx, 24(%rbx)
	testq	%rax, %rax
	je	.LBB15_42
###SPA### trampoline_fmt_64
# %bb.5:
	movl	188(%r12), %eax
	testl	%eax, %eax
	je	.LBB15_11
###SPA### trampoline_fmt_64
# %bb.6:
	movl	$1000000, %eax          # imm = 0xF4240
	movq	%rax, %xmm0
	pslldq	$8, %xmm0               # xmm0 = zero,zero,zero,zero,zero,zero,zero,zero,xmm0[0,1,2,3,4,5,6,7]
	movdqa	%xmm0, 16(%rsp)         # 16-byte Spill
	leaq	112(%rsp), %rbp
	.p2align	4, 0x90
.LBB15_7:                               # =>This Loop Header: Depth=1
                                        #     Child Loop BB15_8 Depth 2
###SPA## trampoline_fmt_64
	movdqa	16(%rsp), %xmm0         # 16-byte Reload
	movdqa	%xmm0, 112(%rsp)
	.p2align	4, 0x90
.LBB15_8:                               #   Parent Loop BB15_7 Depth=1
                                        # =>  This Inner Loop Header: Depth=2
###SPA## trampoline_fmt_64
	movq	%rbp, %rdi
	movq	%rbp, %rsi
	callq	nanosleep@PLT
	cmpl	$-1, %eax
	jne	.LBB15_10
###SPA### trampoline_fmt_64
# %bb.9:                                #   in Loop: Header=BB15_8 Depth=2
	callq	__errno_location@PLT
	cmpl	$4, (%rax)
	je	.LBB15_8
###SPA### trampoline_fmt_64
.LBB15_10:                              #   in Loop: Header=BB15_7 Depth=1
###SPA## trampoline_fmt_64
	movl	188(%r12), %eax
	testl	%eax, %eax
	jne	.LBB15_7
###SPA### trampoline_fmt_64
.LBB15_11:
###SPA## trampoline_fmt_64
	movq	16(%r12), %rdi
	movl	%r13d, %esi
	callq	_ZNK2js4wasm4Code7hasTierENS0_4TierE
	testb	%al, %al
	je	.LBB15_33
###SPA### trampoline_fmt_64
# %bb.12:
	movq	16(%r12), %rdi
	movl	%r13d, %esi
	callq	_ZNK2js4wasm4Code8codeTierENS0_4TierE
	movq	16(%rax), %rbp
	movl	16(%rbp), %esi
	movq	%rbx, %rdi
	callq	_Z16JS_NewUint8ArrayP9JSContextj
	movq	%rax, 128(%rsp)
	movq	%r14, 112(%rsp)
	movq	24(%rbx), %rcx
	movq	%rcx, 120(%rsp)
	leaq	112(%rsp), %rdx
	movq	%rdx, 24(%rbx)
	testq	%rax, %rax
	je	.LBB15_34
###SPA### trampoline_fmt_64
# %bb.13:
	movabsq	$-562949953421312, %r15 # imm = 0xFFFE000000000000
	movq	56(%rax), %rdi
	movq	(%rbp), %rsi
	movl	16(%rbp), %edx
	callq	memcpy@PLT
	movq	128(%rsp), %rax
	orq	%r15, %rax
	leaq	104(%rsp), %rcx
	movq	%rax, 104(%rsp)
	leaq	96(%rbx), %rax
	movq	%rax, 88(%rsp)
	movq	96(%rbx), %rax
	movq	%rax, 96(%rsp)
	leaq	88(%rsp), %rax
	movq	%rax, 96(%rbx)
	leaq	.L.str.8(%rip), %rdx
	movl	$1, %r8d
	movq	%rbx, %rdi
	leaq	152(%rsp), %rsi
	callq	_Z17JS_DefinePropertyP9JSContextN2JS6HandleIP8JSObjectEEPKcNS2_INS1_5ValueEEEj
	testb	%al, %al
	je	.LBB15_35
###SPA### trampoline_fmt_64
# %bb.14:
	leaq	_ZZN2JS6HandleIP8JSObjectEC1EDnE14ConstNullValue(%rip), %rsi
	movq	%rbx, %rdi
	callq	_ZN2js18NewDenseEmptyArrayEP9JSContextN2JS6HandleIP8JSObjectEE
	movq	%rax, 80(%rsp)
	movq	%r14, 64(%rsp)
	movq	24(%rbx), %rcx
	movq	%rcx, 72(%rsp)
	leaq	64(%rsp), %rcx
	movq	%rcx, 24(%rbx)
	testq	%rax, %rax
	je	.LBB15_38
###SPA### trampoline_fmt_64
# %bb.15:
	movq	16(%r12), %rdi
	movl	%r13d, %esi
	callq	_ZNK2js4wasm4Code8codeTierENS0_4TierE
	movq	8(%rax), %rcx
	movq	72(%rcx), %rax
	testq	%rax, %rax
	leaq	_ZN2js11PlainObject6class_E(%rip), %r15
	je	.LBB15_31
###SPA### trampoline_fmt_64
# %bb.16:
	movq	64(%rcx), %rbp
	leaq	56(%rsp), %r12
	leaq	(%rax,%rax,8), %rcx
	leaq	(%rcx,%rcx,2), %rcx
	addq	%rax, %rcx
	movq	%rcx, 16(%rsp)          # 8-byte Spill
	xorl	%r13d, %r13d
.LBB15_17:                              # =>This Inner Loop Header: Depth=1
###SPA## trampoline_fmt_64
	cmpq	%r15, _ZN2js16FunctionClassPtrE(%rip)
	je	.LBB15_20
###SPA### trampoline_fmt_64
# %bb.18:                               #   in Loop: Header=BB15_17 Depth=1
	movl	_ZN2js11PlainObject6class_E+8(%rip), %eax
	movzbl	%ah, %ecx
	andl	$1, %eax
	addq	%rcx, %rax
	movb	$16, %cl
	cmpl	$16, %eax
	ja	.LBB15_21
###SPA### trampoline_fmt_64
# %bb.19:                               #   in Loop: Header=BB15_17 Depth=1
	leaq	_ZN2js2gc16slotsToThingKindE(%rip), %rcx
	movzbl	(%rax,%rcx), %ecx
	jmp	.LBB15_21
.LBB15_20:                              #   in Loop: Header=BB15_17 Depth=1
###SPA## trampoline_fmt_64
	xorl	%ecx, %ecx
.LBB15_21:                              #   in Loop: Header=BB15_17 Depth=1
###SPA## trampoline_fmt_64
	movzbl	%cl, %ecx
	xorl	%r8d, %r8d
	xorl	%r9d, %r9d
	movq	%rbx, %rdi
	movq	%r15, %rsi
	leaq	_ZZN2JS6HandleIP8JSObjectEC1EDnE14ConstNullValue(%rip), %rdx
	callq	_ZN2js29NewObjectWithGivenTaggedProtoEP9JSContextPK7JSClassN2JS6HandleINS_11TaggedProtoEEENS_2gc9AllocKindENS_13NewObjectKindEj
	movq	%rax, 56(%rsp)
	movq	%r14, 40(%rsp)
	movq	24(%rbx), %rcx
	movq	%rcx, 48(%rsp)
	leaq	40(%rsp), %rcx
	movq	%rcx, 24(%rbx)
	testq	%rax, %rax
	je	.LBB15_37
###SPA### trampoline_fmt_64
# %bb.22:                               #   in Loop: Header=BB15_17 Depth=1
	movl	(%rbp,%r13), %eax
	xorps	%xmm0, %xmm0
	cvtsi2sdq	%rax, %xmm0
	movq	%rax, %rcx
	movabsq	$-2111062325329920, %rdx # imm = 0xFFF8800000000000
	orq	%rdx, %rcx
	testl	%eax, %eax
	movq	%xmm0, %rax
	cmovnsq	%rcx, %rax
	movq	%rax, 104(%rsp)
	movl	$1, %r8d
	movq	%rbx, %rdi
	movq	%r12, %rsi
	leaq	.L.str.9(%rip), %rdx
	leaq	104(%rsp), %rcx
	callq	_Z17JS_DefinePropertyP9JSContextN2JS6HandleIP8JSObjectEEPKcNS2_INS1_5ValueEEEj
	testb	%al, %al
	je	.LBB15_37
###SPA### trampoline_fmt_64
# %bb.23:                               #   in Loop: Header=BB15_17 Depth=1
	movl	8(%rbp,%r13), %eax
	xorps	%xmm0, %xmm0
	cvtsi2sdq	%rax, %xmm0
	movq	%rax, %rcx
	movabsq	$-2111062325329920, %rdx # imm = 0xFFF8800000000000
	orq	%rdx, %rcx
	testl	%eax, %eax
	movq	%xmm0, %rax
	cmovnsq	%rcx, %rax
	movq	%rax, 104(%rsp)
	movl	$1, %r8d
	movq	%rbx, %rdi
	movq	%r12, %rsi
	leaq	.L.str.10(%rip), %rdx
	leaq	104(%rsp), %rcx
	callq	_Z17JS_DefinePropertyP9JSContextN2JS6HandleIP8JSObjectEEPKcNS2_INS1_5ValueEEEj
	testb	%al, %al
	je	.LBB15_37
###SPA### trampoline_fmt_64
# %bb.24:                               #   in Loop: Header=BB15_17 Depth=1
	movzbl	24(%rbp,%r13), %eax
	movabsq	$-2111062325329920, %rcx # imm = 0xFFF8800000000000
	orq	%rcx, %rax
	movq	%rax, 104(%rsp)
	movl	$1, %r8d
	movq	%rbx, %rdi
	movq	%r12, %rsi
	leaq	.L.str.11(%rip), %rdx
	leaq	104(%rsp), %rcx
	callq	_Z17JS_DefinePropertyP9JSContextN2JS6HandleIP8JSObjectEEPKcNS2_INS1_5ValueEEEj
	testb	%al, %al
	je	.LBB15_37
###SPA### trampoline_fmt_64
# %bb.25:                               #   in Loop: Header=BB15_17 Depth=1
	cmpb	$0, 24(%rbp,%r13)
	jne	.LBB15_29
###SPA### trampoline_fmt_64
# %bb.26:                               #   in Loop: Header=BB15_17 Depth=1
	movl	12(%rbp,%r13), %eax
	xorps	%xmm0, %xmm0
	cvtsi2sdq	%rax, %xmm0
	movq	%rax, %rcx
	movabsq	$-2111062325329920, %rdx # imm = 0xFFF8800000000000
	orq	%rdx, %rcx
	testl	%eax, %eax
	movq	%xmm0, %rax
	cmovnsq	%rcx, %rax
	movq	%rax, 104(%rsp)
	movl	$1, %r8d
	movq	%rbx, %rdi
	movq	%r12, %rsi
	leaq	.L.str.12(%rip), %rdx
	leaq	104(%rsp), %rcx
	callq	_Z17JS_DefinePropertyP9JSContextN2JS6HandleIP8JSObjectEEPKcNS2_INS1_5ValueEEEj
	testb	%al, %al
	je	.LBB15_37
###SPA### trampoline_fmt_64
# %bb.27:                               #   in Loop: Header=BB15_17 Depth=1
	movzbl	20(%rbp,%r13), %eax
	addl	(%rbp,%r13), %eax
	xorps	%xmm0, %xmm0
	cvtsi2sdq	%rax, %xmm0
	movq	%rax, %rcx
	movabsq	$-2111062325329920, %rdx # imm = 0xFFF8800000000000
	orq	%rdx, %rcx
	testl	%eax, %eax
	movq	%xmm0, %rax
	cmovnsq	%rcx, %rax
	movq	%rax, 104(%rsp)
	movl	$1, %r8d
	movq	%rbx, %rdi
	movq	%r12, %rsi
	leaq	.L.str.13(%rip), %rdx
	leaq	104(%rsp), %rcx
	callq	_Z17JS_DefinePropertyP9JSContextN2JS6HandleIP8JSObjectEEPKcNS2_INS1_5ValueEEEj
	testb	%al, %al
	je	.LBB15_37
###SPA### trampoline_fmt_64
# %bb.28:                               #   in Loop: Header=BB15_17 Depth=1
	movl	8(%rbp,%r13), %eax
	xorps	%xmm0, %xmm0
	cvtsi2sdq	%rax, %xmm0
	movq	%rax, %rcx
	movabsq	$-2111062325329920, %rdx # imm = 0xFFF8800000000000
	orq	%rdx, %rcx
	testl	%eax, %eax
	movq	%xmm0, %rax
	cmovnsq	%rcx, %rax
	movq	%rax, 104(%rsp)
	movl	$1, %r8d
	movq	%rbx, %rdi
	movq	%r12, %rsi
	leaq	.L.str.14(%rip), %rdx
	leaq	104(%rsp), %rcx
	callq	_Z17JS_DefinePropertyP9JSContextN2JS6HandleIP8JSObjectEEPKcNS2_INS1_5ValueEEEj
	testb	%al, %al
	je	.LBB15_37
###SPA### trampoline_fmt_64
.LBB15_29:                              #   in Loop: Header=BB15_17 Depth=1
###SPA## trampoline_fmt_64
	movq	56(%rsp), %rax
	movabsq	$-562949953421312, %rcx # imm = 0xFFFE000000000000
	orq	%rcx, %rax
	movq	%rax, 32(%rsp)
	movq	%rbx, %rdi
	leaq	80(%rsp), %rsi
	leaq	32(%rsp), %rdx
	callq	_ZN2js16NewbornArrayPushEP9JSContextN2JS6HandleIP8JSObjectEERKNS2_5ValueE
	testb	%al, %al
	je	.LBB15_37
###SPA### trampoline_fmt_64
# %bb.30:                               #   in Loop: Header=BB15_17 Depth=1
	movq	40(%rsp), %rax
	movq	48(%rsp), %rcx
	movq	%rcx, (%rax)
	addq	$28, %r13
	cmpq	%r13, 16(%rsp)          # 8-byte Folded Reload
	jne	.LBB15_17
###SPA### trampoline_fmt_64
.LBB15_31:
###SPA## trampoline_fmt_64
	movq	80(%rsp), %rax
	movabsq	$-562949953421312, %rbp # imm = 0xFFFE000000000000
	orq	%rbp, %rax
	movq	%rax, 104(%rsp)
	leaq	.L.str.15(%rip), %rdx
	movl	$1, %r8d
	movq	%rbx, %rdi
	leaq	152(%rsp), %rsi
	leaq	104(%rsp), %rcx
	callq	_Z17JS_DefinePropertyP9JSContextN2JS6HandleIP8JSObjectEEPKcNS2_INS1_5ValueEEEj
	testb	%al, %al
	je	.LBB15_38
###SPA### trampoline_fmt_64
# %bb.32:
	orq	152(%rsp), %rbp
	movq	8(%rsp), %rax           # 8-byte Reload
	movq	%rbp, (%rax)
	movb	$1, %bpl
	jmp	.LBB15_39
.LBB15_33:
###SPA## trampoline_fmt_64
	movabsq	$-1688849860263936, %rax # imm = 0xFFFA000000000000
	movq	8(%rsp), %rcx           # 8-byte Reload
	movq	%rax, (%rcx)
	movb	$1, %bpl
	jmp	.LBB15_42
.LBB15_34:
###SPA## trampoline_fmt_64
	xorl	%ebp, %ebp
	jmp	.LBB15_41
.LBB15_35:
###SPA## trampoline_fmt_64
	xorl	%ebp, %ebp
	jmp	.LBB15_40
.LBB15_37:
###SPA## trampoline_fmt_64
	movq	40(%rsp), %rax
	movq	48(%rsp), %rcx
	movq	%rcx, (%rax)
.LBB15_38:
###SPA## trampoline_fmt_64
	xorl	%ebp, %ebp
.LBB15_39:
###SPA## trampoline_fmt_64
	movq	64(%rsp), %rax
	movq	72(%rsp), %rcx
	movq	%rcx, (%rax)
.LBB15_40:
###SPA## trampoline_fmt_64
	movq	88(%rsp), %rax
	movq	96(%rsp), %rcx
	movq	%rcx, (%rax)
	movq	112(%rsp), %r14
	movq	120(%rsp), %rcx
.LBB15_41:
###SPA## trampoline_fmt_64
	movq	%rcx, (%r14)
.LBB15_42:
###SPA## trampoline_fmt_64
	movq	136(%rsp), %rax
	movq	144(%rsp), %rcx
	movq	%rcx, (%rax)
	movq	%fs:40, %rax
	cmpq	160(%rsp), %rax
	jne	.LBB15_44
###SPA### trampoline_fmt_64
# %bb.43:
	movl	%ebp, %eax
	addq	$168, %rsp
	.cfi_def_cfa_offset 56
	popq	%rbx
	.cfi_def_cfa_offset 48
	popq	%r12
	.cfi_def_cfa_offset 40
	popq	%r13
	.cfi_def_cfa_offset 32
	popq	%r14
	.cfi_def_cfa_offset 24
	popq	%r15
	.cfi_def_cfa_offset 16
	popq	%rbp
	.cfi_def_cfa_offset 8
	movq	%gs:(8), %r11
	movq	(%rsp, %r11, 1), %r11
	subq	%gs:(16), %r11
	addq	$8, %rsp
	jmpq	*%r11
.LBB15_44:
	.cfi_def_cfa_offset 224
###SPA## trampoline_fmt_64
	callq	__stack_chk_fail@PLT
.Lfunc_end15:
	.size	_ZNK2js4wasm6Module11extractCodeEP9JSContextNS0_4TierEN2JS13MutableHandleINS5_5ValueEEE, .Lfunc_end15-_ZNK2js4wasm6Module11extractCodeEP9JSContextNS0_4TierEN2JS13MutableHandleINS5_5ValueEEE
	.cfi_endproc
                                        # -- End function
	.section	.text._ZNK2js4wasm6Module12initSegmentsEP9JSContextN2JS6HandleIPNS_18WasmInstanceObjectEEENS5_IPNS_16WasmMemoryObjectEEERKNS4_8GCVectorINS0_3ValELm0ENS_17SystemAllocPolicyEEE,"ax",@progbits
	.hidden	_ZNK2js4wasm6Module12initSegmentsEP9JSContextN2JS6HandleIPNS_18WasmInstanceObjectEEENS5_IPNS_16WasmMemoryObjectEEERKNS4_8GCVectorINS0_3ValELm0ENS_17SystemAllocPolicyEEE # -- Begin function _ZNK2js4wasm6Module12initSegmentsEP9JSContextN2JS6HandleIPNS_18WasmInstanceObjectEEENS5_IPNS_16WasmMemoryObjectEEERKNS4_8GCVectorINS0_3ValELm0ENS_17SystemAllocPolicyEEE
	.globl	_ZNK2js4wasm6Module12initSegmentsEP9JSContextN2JS6HandleIPNS_18WasmInstanceObjectEEENS5_IPNS_16WasmMemoryObjectEEERKNS4_8GCVectorINS0_3ValELm0ENS_17SystemAllocPolicyEEE
	.p2align	4, 0x90
	.type	_ZNK2js4wasm6Module12initSegmentsEP9JSContextN2JS6HandleIPNS_18WasmInstanceObjectEEENS5_IPNS_16WasmMemoryObjectEEERKNS4_8GCVectorINS0_3ValELm0ENS_17SystemAllocPolicyEEE,@function
_ZNK2js4wasm6Module12initSegmentsEP9JSContextN2JS6HandleIPNS_18WasmInstanceObjectEEENS5_IPNS_16WasmMemoryObjectEEERKNS4_8GCVectorINS0_3ValELm0ENS_17SystemAllocPolicyEEE: # @_ZNK2js4wasm6Module12initSegmentsEP9JSContextN2JS6HandleIPNS_18WasmInstanceObjectEEENS5_IPNS_16WasmMemoryObjectEEERKNS4_8GCVectorINS0_3ValELm0ENS_17SystemAllocPolicyEEE
	.cfi_startproc
	movq	(%rsp), %r10
	addq	%gs:(16), %r10
	movq	%gs:(8), %r11
	movq	%r10, (%rsp, %r11, 1)
# %bb.0:
###SPA## trampoline_fmt_64
	pushq	%rbp
	.cfi_def_cfa_offset 16
	pushq	%r15
	.cfi_def_cfa_offset 24
	pushq	%r14
	.cfi_def_cfa_offset 32
	pushq	%r13
	.cfi_def_cfa_offset 40
	pushq	%r12
	.cfi_def_cfa_offset 48
	pushq	%rbx
	.cfi_def_cfa_offset 56
	subq	$40, %rsp
	.cfi_def_cfa_offset 96
	.cfi_offset %rbx, -56
	.cfi_offset %r12, -48
	.cfi_offset %r13, -40
	.cfi_offset %r14, -32
	.cfi_offset %r15, -24
	.cfi_offset %rbp, -16
	movq	%r8, %r15
	movq	%rcx, (%rsp)            # 8-byte Spill
	movq	%rsi, 32(%rsp)          # 8-byte Spill
	movq	%rdi, %rbx
	movq	(%rdx), %rdi
	callq	_ZNK2js18WasmInstanceObject8instanceEv
	movq	%rbx, 8(%rsp)           # 8-byte Spill
	movq	104(%rbx), %r14
	testq	%r14, %r14
	je	.LBB16_10
###SPA### trampoline_fmt_64
# %bb.1:
	movq	%rax, %rbp
	movq	8(%rsp), %rax           # 8-byte Reload
	movq	96(%rax), %r13
	shlq	$3, %r14
	xorl	%r12d, %r12d
	.p2align	4, 0x90
.LBB16_2:                               # =>This Inner Loop Header: Depth=1
###SPA## trampoline_fmt_64
	movq	(%r13,%r12), %rdx
	cmpl	$0, 8(%rdx)
	jne	.LBB16_9
###SPA### trampoline_fmt_64
# %bb.3:                                #   in Loop: Header=BB16_2 Depth=1
	movl	24(%rdx), %esi
	movl	32(%rdx), %eax
	movl	40(%rdx), %edi
	movq	(%r15), %rcx
	movl	%edi, 24(%rsp)
	leaq	24(%rsp), %rdi
	testl	%esi, %esi
	je	.LBB16_6
###SPA### trampoline_fmt_64
# %bb.4:                                #   in Loop: Header=BB16_2 Depth=1
	cmpl	$1, %esi
	jne	.LBB16_26
###SPA### trampoline_fmt_64
# %bb.5:                                #   in Loop: Header=BB16_2 Depth=1
	leaq	(%rax,%rax,2), %rax
	leaq	(%rcx,%rax,8), %rdi
	addq	$8, %rdi
.LBB16_6:                               #   in Loop: Header=BB16_2 Depth=1
###SPA## trampoline_fmt_64
	movl	(%rdi), %ecx
	movl	12(%rdx), %esi
	movq	64(%rbp), %rax
	movq	(%rax,%rsi,8), %rax
	movl	116(%rax), %eax
	subl	%ecx, %eax
	jb	.LBB16_24
###SPA### trampoline_fmt_64
# %bb.7:                                #   in Loop: Header=BB16_2 Depth=1
	movl	72(%rdx), %r9d
	cmpl	%r9d, %eax
	jb	.LBB16_24
###SPA### trampoline_fmt_64
# %bb.8:                                #   in Loop: Header=BB16_2 Depth=1
	xorl	%ebx, %ebx
	xorl	%r8d, %r8d
	movq	%rbp, %rdi
                                        # kill: def $esi killed $esi killed $rsi
	callq	_ZN2js4wasm8Instance9initElemsEjRKNS0_11ElemSegmentEjjj
	testb	%al, %al
	je	.LBB16_25
###SPA### trampoline_fmt_64
.LBB16_9:                               #   in Loop: Header=BB16_2 Depth=1
###SPA## trampoline_fmt_64
	addq	$8, %r12
	cmpq	%r12, %r14
	jne	.LBB16_2
###SPA### trampoline_fmt_64
.LBB16_10:
###SPA## trampoline_fmt_64
	movq	(%rsp), %rbp            # 8-byte Reload
	movq	(%rbp), %rdi
	movb	$1, %bl
	testq	%rdi, %rdi
	je	.LBB16_25
###SPA### trampoline_fmt_64
# %bb.11:
	callq	_ZNK2js16WasmMemoryObject20volatileMemoryLengthEv
	movl	%eax, %r14d
	movq	(%rbp), %rdi
	callq	_ZNK2js16WasmMemoryObject6bufferEv
	movq	(%rax), %rcx
	leaq	_ZN2js17ArrayBufferObject6class_E(%rip), %rdx
	cmpq	%rdx, (%rcx)
	je	.LBB16_12
###SPA### trampoline_fmt_64
# %bb.13:
	movq	%rax, %rdi
	callq	_ZNK2js23SharedArrayBufferObject15rawBufferObjectEv
	addq	$80, %rax
	jmp	.LBB16_14
.LBB16_12:
###SPA## trampoline_fmt_64
	movq	%rax, %rdi
	callq	_ZNK2js17ArrayBufferObject17dataPointerSharedEv
.LBB16_14:
###SPA## trampoline_fmt_64
	movq	%rax, (%rsp)            # 8-byte Spill
	movq	8(%rsp), %rax           # 8-byte Reload
	movq	80(%rax), %rbp
	testq	%rbp, %rbp
	je	.LBB16_25
###SPA### trampoline_fmt_64
# %bb.15:
	movq	72(%rax), %r12
	shlq	$3, %rbp
	xorl	%r13d, %r13d
	.p2align	4, 0x90
.LBB16_16:                              # =>This Inner Loop Header: Depth=1
###SPA## trampoline_fmt_64
	movq	(%r12,%r13), %rax
	cmpb	$0, 40(%rax)
	je	.LBB16_23
###SPA### trampoline_fmt_64
# %bb.17:                               #   in Loop: Header=BB16_16 Depth=1
	movl	8(%rax), %esi
	movl	16(%rax), %ecx
	movl	24(%rax), %edi
	movq	(%r15), %rdx
	movl	%edi, 16(%rsp)
	leaq	16(%rsp), %rdi
	testl	%esi, %esi
	je	.LBB16_20
###SPA### trampoline_fmt_64
# %bb.18:                               #   in Loop: Header=BB16_16 Depth=1
	cmpl	$1, %esi
	jne	.LBB16_26
###SPA### trampoline_fmt_64
# %bb.19:                               #   in Loop: Header=BB16_16 Depth=1
	leaq	(%rcx,%rcx,2), %rcx
	leaq	(%rdx,%rcx,8), %rdi
	addq	$8, %rdi
.LBB16_20:                              #   in Loop: Header=BB16_16 Depth=1
###SPA## trampoline_fmt_64
	movl	(%rdi), %edi
	cmpl	%edi, %r14d
	jb	.LBB16_24
###SPA### trampoline_fmt_64
# %bb.21:                               #   in Loop: Header=BB16_16 Depth=1
	movl	56(%rax), %edx
	movl	%r14d, %ecx
	subl	%edi, %ecx
	cmpl	%edx, %ecx
	jb	.LBB16_24
###SPA### trampoline_fmt_64
# %bb.22:                               #   in Loop: Header=BB16_16 Depth=1
	addq	(%rsp), %rdi            # 8-byte Folded Reload
	movq	48(%rax), %rsi
	callq	memcpy@PLT
.LBB16_23:                              #   in Loop: Header=BB16_16 Depth=1
###SPA## trampoline_fmt_64
	addq	$8, %r13
	cmpq	%r13, %rbp
	jne	.LBB16_16
###SPA### trampoline_fmt_64
	jmp	.LBB16_25
.LBB16_24:
###SPA## trampoline_fmt_64
	leaq	_ZN2js15GetErrorMessageEPvj(%rip), %rsi
	xorl	%ebx, %ebx
	xorl	%edx, %edx
	movl	$338, %ecx              # imm = 0x152
	xorl	%eax, %eax
	movq	32(%rsp), %rdi          # 8-byte Reload
	callq	_Z24JS_ReportErrorNumberUTF8P9JSContextPFPK19JSErrorFormatStringPvjES4_jz
.LBB16_25:
###SPA## trampoline_fmt_64
	movl	%ebx, %eax
	addq	$40, %rsp
	.cfi_def_cfa_offset 56
	popq	%rbx
	.cfi_def_cfa_offset 48
	popq	%r12
	.cfi_def_cfa_offset 40
	popq	%r13
	.cfi_def_cfa_offset 32
	popq	%r14
	.cfi_def_cfa_offset 24
	popq	%r15
	.cfi_def_cfa_offset 16
	popq	%rbp
	.cfi_def_cfa_offset 8
	movq	%gs:(8), %r11
	movq	(%rsp, %r11, 1), %r11
	subq	%gs:(16), %r11
	addq	$8, %rsp
	jmpq	*%r11
.LBB16_26:
	.cfi_def_cfa_offset 96
###SPA## trampoline_fmt_64
	leaq	.L.str.48(%rip), %rax
	movq	gMozCrashReason@GOTPCREL(%rip), %rcx
	movq	%rax, (%rcx)
	movl	$509, 0                 # imm = 0x1FD
	callq	abort@PLT
.Lfunc_end16:
	.size	_ZNK2js4wasm6Module12initSegmentsEP9JSContextN2JS6HandleIPNS_18WasmInstanceObjectEEENS5_IPNS_16WasmMemoryObjectEEERKNS4_8GCVectorINS0_3ValELm0ENS_17SystemAllocPolicyEEE, .Lfunc_end16-_ZNK2js4wasm6Module12initSegmentsEP9JSContextN2JS6HandleIPNS_18WasmInstanceObjectEEENS5_IPNS_16WasmMemoryObjectEEERKNS4_8GCVectorINS0_3ValELm0ENS_17SystemAllocPolicyEEE
	.cfi_endproc
                                        # -- End function
	.section	.text._ZNK2js4wasm6Module20instantiateFunctionsEP9JSContextRKN2JS8GCVectorIP10JSFunctionLm0ENS_17SystemAllocPolicyEEE,"ax",@progbits
	.hidden	_ZNK2js4wasm6Module20instantiateFunctionsEP9JSContextRKN2JS8GCVectorIP10JSFunctionLm0ENS_17SystemAllocPolicyEEE # -- Begin function _ZNK2js4wasm6Module20instantiateFunctionsEP9JSContextRKN2JS8GCVectorIP10JSFunctionLm0ENS_17SystemAllocPolicyEEE
	.globl	_ZNK2js4wasm6Module20instantiateFunctionsEP9JSContextRKN2JS8GCVectorIP10JSFunctionLm0ENS_17SystemAllocPolicyEEE
	.p2align	4, 0x90
	.type	_ZNK2js4wasm6Module20instantiateFunctionsEP9JSContextRKN2JS8GCVectorIP10JSFunctionLm0ENS_17SystemAllocPolicyEEE,@function
_ZNK2js4wasm6Module20instantiateFunctionsEP9JSContextRKN2JS8GCVectorIP10JSFunctionLm0ENS_17SystemAllocPolicyEEE: # @_ZNK2js4wasm6Module20instantiateFunctionsEP9JSContextRKN2JS8GCVectorIP10JSFunctionLm0ENS_17SystemAllocPolicyEEE
	.cfi_startproc
	movq	(%rsp), %r10
	addq	%gs:(16), %r10
	movq	%gs:(8), %r11
	movq	%r10, (%rsp, %r11, 1)
# %bb.0:
###SPA## trampoline_fmt_64
	pushq	%rbp
	.cfi_def_cfa_offset 16
	pushq	%r15
	.cfi_def_cfa_offset 24
	pushq	%r14
	.cfi_def_cfa_offset 32
	pushq	%r13
	.cfi_def_cfa_offset 40
	pushq	%r12
	.cfi_def_cfa_offset 48
	pushq	%rbx
	.cfi_def_cfa_offset 56
	subq	$24, %rsp
	.cfi_def_cfa_offset 80
	.cfi_offset %rbx, -56
	.cfi_offset %r12, -48
	.cfi_offset %r13, -40
	.cfi_offset %r14, -32
	.cfi_offset %r15, -24
	.cfi_offset %rbp, -16
	movq	%rdi, %r15
	movq	16(%rdi), %rdi
	movq	32(%rdi), %rax
	movb	$1, %bpl
	cmpl	$1, 16(%rax)
	je	.LBB17_24
###SPA### trampoline_fmt_64
# %bb.1:
	movq	%rdx, %rbx
	movq	%rsi, %r14
	callq	_ZNK2js4wasm4Code10stableTierEv
	movl	%eax, %r13d
	movq	16(%r15), %rdi
	movl	%eax, %esi
	callq	_ZNK2js4wasm4Code8codeTierENS0_4TierE
	movq	8(%rax), %rax
	cmpq	$0, 408(%rax)
	je	.LBB17_24
###SPA### trampoline_fmt_64
# %bb.2:
	movq	%r14, 8(%rsp)           # 8-byte Spill
	xorl	%r12d, %r12d
	movq	%rbx, 16(%rsp)          # 8-byte Spill
.LBB17_3:                               # =>This Loop Header: Depth=1
                                        #     Child Loop BB17_7 Depth 2
                                        #     Child Loop BB17_12 Depth 2
###SPA## trampoline_fmt_64
	movq	(%rbx), %rax
	movq	(%rax,%r12,8), %rbp
	movq	%rbp, %rdi
	callq	_ZN2js4wasm22IsWasmExportedFunctionEP10JSFunction
	testb	%al, %al
	je	.LBB17_14
###SPA### trampoline_fmt_64
# %bb.4:                                #   in Loop: Header=BB17_3 Depth=1
	movq	%rbp, %rdi
	callq	_ZN2js4wasm27ExportedFunctionToFuncIndexEP10JSFunction
	movl	%eax, %r14d
	movq	%rbp, %rdi
	callq	_ZN2js4wasm26ExportedFunctionToInstanceEP10JSFunction
	movq	%rax, %rbp
	movq	40(%rax), %rdi
	callq	_ZNK2js4wasm4Code10stableTierEv
	movq	40(%rbp), %rdi
	movl	%eax, %esi
	callq	_ZNK2js4wasm4Code8codeTierENS0_4TierE
	movq	8(%rax), %rdi
	xorl	%edx, %edx
	movl	%r14d, %esi
	callq	_ZNK2js4wasm12MetadataTier16lookupFuncExportEjPm
	movq	%rax, %r14
	movq	16(%r15), %rdi
	movl	%r13d, %esi
	callq	_ZNK2js4wasm4Code8codeTierENS0_4TierE
	movq	8(%rax), %rax
	movq	400(%rax), %rax
	movq	8(%r14), %rdx
	leaq	(%r12,%r12,2), %rcx
	shlq	$6, %rcx
	cmpq	8(%rax,%rcx), %rdx
	jne	.LBB17_16
###SPA### trampoline_fmt_64
# %bb.5:                                #   in Loop: Header=BB17_3 Depth=1
	testq	%rdx, %rdx
	je	.LBB17_9
###SPA### trampoline_fmt_64
# %bb.6:                                #   in Loop: Header=BB17_3 Depth=1
	movq	(%r14), %rsi
	movq	(%rax,%rcx), %rdi
	shlq	$2, %rdx
	xorl	%ebx, %ebx
	.p2align	4, 0x90
.LBB17_7:                               #   Parent Loop BB17_3 Depth=1
                                        # =>  This Inner Loop Header: Depth=2
###SPA## trampoline_fmt_64
	movl	(%rsi,%rbx), %ebp
	cmpl	(%rdi,%rbx), %ebp
	jne	.LBB17_16
###SPA### trampoline_fmt_64
# %bb.8:                                #   in Loop: Header=BB17_7 Depth=2
	addq	$4, %rbx
	cmpq	%rbx, %rdx
	jne	.LBB17_7
###SPA### trampoline_fmt_64
.LBB17_9:                               #   in Loop: Header=BB17_3 Depth=1
###SPA## trampoline_fmt_64
	movq	96(%r14), %rdx
	cmpq	96(%rax,%rcx), %rdx
	jne	.LBB17_16
###SPA### trampoline_fmt_64
# %bb.10:                               #   in Loop: Header=BB17_3 Depth=1
	testq	%rdx, %rdx
	je	.LBB17_14
###SPA### trampoline_fmt_64
# %bb.11:                               #   in Loop: Header=BB17_3 Depth=1
	movq	88(%r14), %rsi
	movq	88(%rax,%rcx), %rax
	shlq	$2, %rdx
	xorl	%ecx, %ecx
	.p2align	4, 0x90
.LBB17_12:                              #   Parent Loop BB17_3 Depth=1
                                        # =>  This Inner Loop Header: Depth=2
###SPA## trampoline_fmt_64
	movl	(%rsi,%rcx), %edi
	cmpl	(%rax,%rcx), %edi
	jne	.LBB17_16
###SPA### trampoline_fmt_64
# %bb.13:                               #   in Loop: Header=BB17_12 Depth=2
	addq	$4, %rcx
	cmpq	%rcx, %rdx
	jne	.LBB17_12
###SPA### trampoline_fmt_64
	.p2align	4, 0x90
.LBB17_14:                              #   in Loop: Header=BB17_3 Depth=1
###SPA## trampoline_fmt_64
	addq	$1, %r12
	movq	16(%r15), %rdi
	movl	%r13d, %esi
	callq	_ZNK2js4wasm4Code8codeTierENS0_4TierE
	movq	8(%rax), %rax
	cmpq	408(%rax), %r12
	movq	16(%rsp), %rbx          # 8-byte Reload
	jb	.LBB17_3
###SPA### trampoline_fmt_64
# %bb.15:
	movb	$1, %bpl
	jmp	.LBB17_24
.LBB17_16:
###SPA## trampoline_fmt_64
	movq	32(%r15), %rcx
	testq	%rcx, %rcx
	je	.LBB17_22
###SPA### trampoline_fmt_64
# %bb.17:
	movq	24(%r15), %rax
	shlq	$3, %rcx
	leaq	(%rcx,%rcx,2), %rdx
	xorl	%ecx, %ecx
	.p2align	4, 0x90
.LBB17_18:                              # =>This Inner Loop Header: Depth=1
###SPA## trampoline_fmt_64
	cmpl	$0, 16(%rax,%rcx)
	je	.LBB17_19
###SPA### trampoline_fmt_64
# %bb.21:                               #   in Loop: Header=BB17_18 Depth=1
	addq	$24, %rcx
	cmpq	%rcx, %rdx
	jne	.LBB17_18
###SPA### trampoline_fmt_64
	jmp	.LBB17_22
	.p2align	4, 0x90
.LBB17_19:                              #   in Loop: Header=BB17_18 Depth=1
###SPA## trampoline_fmt_64
	testl	%r12d, %r12d
	je	.LBB17_23
###SPA### trampoline_fmt_64
# %bb.20:                               #   in Loop: Header=BB17_18 Depth=1
	addl	$-1, %r12d
	addq	$24, %rcx
	cmpq	%rcx, %rdx
	jne	.LBB17_18
###SPA### trampoline_fmt_64
.LBB17_22:
###SPA## trampoline_fmt_64
	leaq	.L.str.49(%rip), %rax
	movq	gMozCrashReason@GOTPCREL(%rip), %rcx
	movq	%rax, (%rcx)
	movl	$645, 0                 # imm = 0x285
	callq	abort@PLT
.LBB17_23:
###SPA## trampoline_fmt_64
	movq	(%rax,%rcx), %r8
	movq	8(%rax,%rcx), %r9
	leaq	_ZN2js15GetErrorMessageEPvj(%rip), %rsi
	xorl	%ebp, %ebp
	movl	$0, %edx
	movl	$322, %ecx              # imm = 0x142
	xorl	%eax, %eax
	movq	8(%rsp), %rdi           # 8-byte Reload
	callq	_Z24JS_ReportErrorNumberUTF8P9JSContextPFPK19JSErrorFormatStringPvjES4_jz
.LBB17_24:
###SPA## trampoline_fmt_64
	movl	%ebp, %eax
	addq	$24, %rsp
	.cfi_def_cfa_offset 56
	popq	%rbx
	.cfi_def_cfa_offset 48
	popq	%r12
	.cfi_def_cfa_offset 40
	popq	%r13
	.cfi_def_cfa_offset 32
	popq	%r14
	.cfi_def_cfa_offset 24
	popq	%r15
	.cfi_def_cfa_offset 16
	popq	%rbp
	.cfi_def_cfa_offset 8
	movq	%gs:(8), %r11
	movq	(%rsp, %r11, 1), %r11
	subq	%gs:(16), %r11
	addq	$8, %rsp
	jmpq	*%r11
.Lfunc_end17:
	.size	_ZNK2js4wasm6Module20instantiateFunctionsEP9JSContextRKN2JS8GCVectorIP10JSFunctionLm0ENS_17SystemAllocPolicyEEE, .Lfunc_end17-_ZNK2js4wasm6Module20instantiateFunctionsEP9JSContextRKN2JS8GCVectorIP10JSFunctionLm0ENS_17SystemAllocPolicyEEE
	.cfi_endproc
                                        # -- End function
	.section	.text._ZNK2js4wasm6Module17instantiateMemoryEP9JSContextN2JS13MutableHandleIPNS_16WasmMemoryObjectEEE,"ax",@progbits
	.hidden	_ZNK2js4wasm6Module17instantiateMemoryEP9JSContextN2JS13MutableHandleIPNS_16WasmMemoryObjectEEE # -- Begin function _ZNK2js4wasm6Module17instantiateMemoryEP9JSContextN2JS13MutableHandleIPNS_16WasmMemoryObjectEEE
	.globl	_ZNK2js4wasm6Module17instantiateMemoryEP9JSContextN2JS13MutableHandleIPNS_16WasmMemoryObjectEEE
	.p2align	4, 0x90
	.type	_ZNK2js4wasm6Module17instantiateMemoryEP9JSContextN2JS13MutableHandleIPNS_16WasmMemoryObjectEEE,@function
_ZNK2js4wasm6Module17instantiateMemoryEP9JSContextN2JS13MutableHandleIPNS_16WasmMemoryObjectEEE: # @_ZNK2js4wasm6Module17instantiateMemoryEP9JSContextN2JS13MutableHandleIPNS_16WasmMemoryObjectEEE
	.cfi_startproc
	movq	(%rsp), %r10
	addq	%gs:(16), %r10
	movq	%gs:(8), %r11
	movq	%r10, (%rsp, %r11, 1)
# %bb.0:
###SPA## trampoline_fmt_64
	pushq	%rbp
	.cfi_def_cfa_offset 16
	pushq	%r15
	.cfi_def_cfa_offset 24
	pushq	%r14
	.cfi_def_cfa_offset 32
	pushq	%r13
	.cfi_def_cfa_offset 40
	pushq	%r12
	.cfi_def_cfa_offset 48
	pushq	%rbx
	.cfi_def_cfa_offset 56
	subq	$120, %rsp
	.cfi_def_cfa_offset 176
	.cfi_offset %rbx, -56
	.cfi_offset %r12, -48
	.cfi_offset %r13, -40
	.cfi_offset %r14, -32
	.cfi_offset %r15, -24
	.cfi_offset %rbp, -16
	movq	%fs:40, %rax
	movq	%rax, 112(%rsp)
	movq	16(%rdi), %rax
	movq	32(%rax), %rax
	movl	20(%rax), %r12d
	testl	%r12d, %r12d
	je	.LBB18_1
###SPA### trampoline_fmt_64
# %bb.2:
	movq	%rdx, %r15
	movq	%rsi, %rbp
	movq	%rdi, %r14
	movq	24(%rax), %r13
	movq	40(%rax), %rdx
	movb	48(%rax), %bl
	movb	55(%rax), %cl
	movb	%cl, 110(%rsp)
	movzwl	53(%rax), %ecx
	movw	%cx, 108(%rsp)
	movl	49(%rax), %eax
	movl	%eax, 104(%rsp)
	movq	(%r15), %rdi
	testq	%rdi, %rdi
	je	.LBB18_24
###SPA### trampoline_fmt_64
# %bb.3:
	movq	%rbp, 8(%rsp)           # 8-byte Spill
	movb	%bl, 7(%rsp)            # 1-byte Spill
	movq	%rdx, 16(%rsp)          # 8-byte Spill
	callq	_ZNK2js16WasmMemoryObject20volatileMemoryLengthEv
	movl	%eax, %ebx
	movq	(%r15), %rdi
	callq	_ZNK2js16WasmMemoryObject6bufferEv
	leaq	72(%rsp), %rdi
	movq	%rax, %rsi
	callq	_ZN2js22WasmArrayBufferMaxSizeEPKNS_28ArrayBufferObjectMaybeSharedE
	cmpb	$0, 76(%rsp)
	je	.LBB18_4
###SPA### trampoline_fmt_64
# %bb.5:
	movl	72(%rsp), %ecx
	movzbl	%cl, %eax
                                        # kill: def $ecx killed $ecx killed $rcx def $rcx
	andl	$-256, %ecx
	movb	$0, 76(%rsp)
	movb	$1, %dl
	movq	16(%r14), %rsi
	movq	32(%rsi), %rsi
	cmpl	$1, 16(%rsi)
	je	.LBB18_14
###SPA### trampoline_fmt_64
.LBB18_7:
###SPA## trampoline_fmt_64
	movl	%ebx, %esi
	cmpq	%rsi, %r13
	ja	.LBB18_9
###SPA### trampoline_fmt_64
# %bb.8:
	cmpb	$0, 7(%rsp)             # 1-byte Folded Reload
	movl	$4294967295, %edi       # imm = 0xFFFFFFFF
	cmovneq	16(%rsp), %rdi          # 8-byte Folded Reload
	cmpq	%rsi, %rdi
	jae	.LBB18_11
###SPA### trampoline_fmt_64
.LBB18_9:
###SPA## trampoline_fmt_64
	leaq	_ZN2js15GetErrorMessageEPvj(%rip), %rsi
	leaq	.L.str.16(%rip), %r8
	xorl	%ebx, %ebx
	xorl	%edx, %edx
	movl	$323, %ecx              # imm = 0x143
.LBB18_10:
###SPA## trampoline_fmt_64
	xorl	%eax, %eax
	movq	8(%rsp), %rdi           # 8-byte Reload
	callq	_Z24JS_ReportErrorNumberUTF8P9JSContextPFPK19JSErrorFormatStringPvjES4_jz
	movq	%fs:40, %rax
	cmpq	112(%rsp), %rax
	je	.LBB18_33
###SPA### trampoline_fmt_64
	jmp	.LBB18_34
.LBB18_1:
###SPA## trampoline_fmt_64
	movb	$1, %bl
	movq	%fs:40, %rax
	cmpq	112(%rsp), %rax
	je	.LBB18_33
###SPA### trampoline_fmt_64
	jmp	.LBB18_34
.LBB18_24:
###SPA## trampoline_fmt_64
	testq	$-2147483648, %r13      # imm = 0x80000000
	je	.LBB18_26
###SPA### trampoline_fmt_64
# %bb.25:
	leaq	_ZN2js15GetErrorMessageEPvj(%rip), %rsi
	xorl	%ebx, %ebx
	xorl	%edx, %edx
	movl	$342, %ecx              # imm = 0x156
	xorl	%eax, %eax
	movq	%rbp, %rdi
	callq	_Z24JS_ReportErrorNumberUTF8P9JSContextPFPK19JSErrorFormatStringPvjES4_jz
	movq	%fs:40, %rax
	cmpq	112(%rsp), %rax
	je	.LBB18_33
###SPA### trampoline_fmt_64
	jmp	.LBB18_34
.LBB18_4:
###SPA## trampoline_fmt_64
	xorl	%edx, %edx
	xorl	%eax, %eax
	xorl	%ecx, %ecx
	movq	16(%r14), %rsi
	movq	32(%rsi), %rsi
	cmpl	$1, 16(%rsi)
	jne	.LBB18_7
###SPA### trampoline_fmt_64
.LBB18_14:
###SPA## trampoline_fmt_64
	movq	(%r15), %rdi
	callq	_ZNK2js16WasmMemoryObject8isSharedEv
	testb	%al, %al
	je	.LBB18_20
###SPA### trampoline_fmt_64
# %bb.15:
	movq	8(%rsp), %rbp           # 8-byte Reload
	movq	152(%rbp), %rdi
	addq	$24, %rdi
	callq	_ZNK2JS20RealmCreationOptions32getSharedMemoryAndAtomicsEnabledEv
	testb	%al, %al
	je	.LBB18_16
###SPA### trampoline_fmt_64
# %bb.22:
	cmpl	$2, %r12d
	je	.LBB18_28
###SPA### trampoline_fmt_64
# %bb.23:
	leaq	_ZN2js15GetErrorMessageEPvj(%rip), %rsi
	xorl	%ebx, %ebx
	xorl	%edx, %edx
	movl	$326, %ecx              # imm = 0x146
	jmp	.LBB18_17
.LBB18_26:
###SPA## trampoline_fmt_64
	xorl	%eax, %eax
	cmpl	$2, %r12d
	sete	%al
	leaq	64(%rsp), %rsi
	movq	$0, 64(%rsp)
	leaq	24(%rbp), %r12
	movq	%r12, 48(%rsp)
	movq	24(%rbp), %rcx
	movq	%rcx, 56(%rsp)
	leaq	48(%rsp), %rcx
	movq	%rcx, 24(%rbp)
	movq	%r13, 72(%rsp)
	movq	%rsi, %r13
	movq	%rdx, 80(%rsp)
	movb	%bl, 88(%rsp)
	movl	104(%rsp), %ecx
	movl	%ecx, 89(%rsp)
	movzwl	108(%rsp), %ecx
	movw	%cx, 93(%rsp)
	movb	110(%rsp), %cl
	movb	%cl, 95(%rsp)
	movl	%eax, 96(%rsp)
	leaq	72(%rsp), %rsi
	movq	%rbp, %rdi
	movq	%r13, %rdx
	callq	_ZN2js16CreateWasmBufferEP9JSContextRKNS_4wasm6LimitsEN2JS13MutableHandleIPNS_28ArrayBufferObjectMaybeSharedEEE
	testb	%al, %al
	je	.LBB18_30
###SPA### trampoline_fmt_64
# %bb.27:
	movq	152(%rbp), %rax
	movq	88(%rax), %rax
	movq	8(%rax), %rcx
	movq	16(%rax), %rax
	movzbl	19(%rcx), %ecx
	andl	$31, %ecx
	movl	$162, %edx
	subl	%ecx, %edx
	movabsq	$-562949953421312, %rcx # imm = 0xFFFE000000000000
	xorq	(%rax,%rdx,8), %rcx
	leaq	40(%rsp), %rdx
	movq	%rcx, 40(%rsp)
	movq	%r12, 24(%rsp)
	movq	24(%rbp), %rax
	movq	%rax, 32(%rsp)
	leaq	24(%rsp), %rax
	movq	%rax, 24(%rbp)
	movq	%rbp, %rdi
	movq	%r13, %rsi
	callq	_ZN2js16WasmMemoryObject6createEP9JSContextN2JS6HandleIPNS_28ArrayBufferObjectMaybeSharedEEENS4_IP8JSObjectEE
	movq	%rax, (%r15)
	movq	24(%rsp), %rcx
	movq	32(%rsp), %rdx
	movq	%rdx, (%rcx)
	movq	48(%rsp), %rcx
	movq	56(%rsp), %rdx
	movq	%rdx, (%rcx)
	testq	%rax, %rax
	jne	.LBB18_28
###SPA### trampoline_fmt_64
	jmp	.LBB18_31
.LBB18_20:
###SPA## trampoline_fmt_64
	cmpl	$2, %r12d
	movq	8(%rsp), %rdi           # 8-byte Reload
	jne	.LBB18_28
###SPA### trampoline_fmt_64
# %bb.21:
	leaq	_ZN2js15GetErrorMessageEPvj(%rip), %rsi
	xorl	%ebx, %ebx
	xorl	%edx, %edx
	movl	$325, %ecx              # imm = 0x145
	xorl	%eax, %eax
	callq	_Z25JS_ReportErrorNumberASCIIP9JSContextPFPK19JSErrorFormatStringPvjES4_jz
	movq	%fs:40, %rax
	cmpq	112(%rsp), %rax
	je	.LBB18_33
###SPA### trampoline_fmt_64
	jmp	.LBB18_34
.LBB18_28:
###SPA## trampoline_fmt_64
	movq	(%r15), %rdi
	callq	_ZNK2js16WasmMemoryObject6isHugeEv
	movzbl	%al, %eax
	movq	16(%r14), %rcx
	movq	32(%rcx), %rcx
	movzbl	74(%rcx), %ecx
	movb	$1, %bl
	cmpl	%ecx, %eax
	jne	.LBB18_29
###SPA### trampoline_fmt_64
# %bb.32:
	movq	%fs:40, %rax
	cmpq	112(%rsp), %rax
	jne	.LBB18_34
###SPA### trampoline_fmt_64
.LBB18_33:
###SPA## trampoline_fmt_64
	movl	%ebx, %eax
	addq	$120, %rsp
	.cfi_def_cfa_offset 56
	popq	%rbx
	.cfi_def_cfa_offset 48
	popq	%r12
	.cfi_def_cfa_offset 40
	popq	%r13
	.cfi_def_cfa_offset 32
	popq	%r14
	.cfi_def_cfa_offset 24
	popq	%r15
	.cfi_def_cfa_offset 16
	popq	%rbp
	.cfi_def_cfa_offset 8
	movq	%gs:(8), %r11
	movq	(%rsp, %r11, 1), %r11
	subq	%gs:(16), %r11
	addq	$8, %rsp
	jmpq	*%r11
.LBB18_30:
	.cfi_def_cfa_offset 176
###SPA## trampoline_fmt_64
	movq	48(%rsp), %rax
	movq	56(%rsp), %rcx
	movq	%rcx, (%rax)
.LBB18_31:
###SPA## trampoline_fmt_64
	xorl	%ebx, %ebx
	movq	%fs:40, %rax
	cmpq	112(%rsp), %rax
	je	.LBB18_33
###SPA### trampoline_fmt_64
.LBB18_34:
###SPA## trampoline_fmt_64
	callq	__stack_chk_fail@PLT
.LBB18_16:
###SPA## trampoline_fmt_64
	leaq	_ZN2js15GetErrorMessageEPvj(%rip), %rsi
	xorl	%ebx, %ebx
	xorl	%edx, %edx
	movl	$328, %ecx              # imm = 0x148
.LBB18_17:
###SPA## trampoline_fmt_64
	xorl	%eax, %eax
	movq	%rbp, %rdi
	callq	_Z25JS_ReportErrorNumberASCIIP9JSContextPFPK19JSErrorFormatStringPvjES4_jz
	movq	%fs:40, %rax
	cmpq	112(%rsp), %rax
	je	.LBB18_33
###SPA### trampoline_fmt_64
	jmp	.LBB18_34
.LBB18_11:
###SPA## trampoline_fmt_64
	testb	%dl, %dl
	je	.LBB18_18
###SPA### trampoline_fmt_64
# %bb.12:
	cmpb	$0, 7(%rsp)             # 1-byte Folded Reload
	je	.LBB18_14
###SPA### trampoline_fmt_64
# %bb.13:
	orq	%rax, %rcx
	cmpq	16(%rsp), %rcx          # 8-byte Folded Reload
	ja	.LBB18_19
###SPA### trampoline_fmt_64
	jmp	.LBB18_14
.LBB18_18:
###SPA## trampoline_fmt_64
	cmpb	$0, 7(%rsp)             # 1-byte Folded Reload
	je	.LBB18_14
###SPA### trampoline_fmt_64
.LBB18_19:
###SPA## trampoline_fmt_64
	leaq	_ZN2js15GetErrorMessageEPvj(%rip), %rsi
	leaq	.L.str.16(%rip), %r8
	xorl	%ebx, %ebx
	xorl	%edx, %edx
	movl	$324, %ecx              # imm = 0x144
	jmp	.LBB18_10
.LBB18_29:
###SPA## trampoline_fmt_64
	leaq	.L.str.17(%rip), %rax
	movq	gMozCrashReason@GOTPCREL(%rip), %rcx
	movq	%rax, (%rcx)
	movl	$792, 0                 # imm = 0x318
	callq	abort@PLT
.Lfunc_end18:
	.size	_ZNK2js4wasm6Module17instantiateMemoryEP9JSContextN2JS13MutableHandleIPNS_16WasmMemoryObjectEEE, .Lfunc_end18-_ZNK2js4wasm6Module17instantiateMemoryEP9JSContextN2JS13MutableHandleIPNS_16WasmMemoryObjectEEE
	.cfi_endproc
                                        # -- End function
	.section	.text._ZNK2js4wasm6Module24instantiateImportedTableEP9JSContextRKNS0_9TableDescEN2JS6HandleIPNS_15WasmTableObjectEEEPNS7_8GCVectorISA_Lm0ENS_17SystemAllocPolicyEEEPN7mozilla6VectorI6RefPtrINS0_5TableEELm0ESD_EE,"ax",@progbits
	.hidden	_ZNK2js4wasm6Module24instantiateImportedTableEP9JSContextRKNS0_9TableDescEN2JS6HandleIPNS_15WasmTableObjectEEEPNS7_8GCVectorISA_Lm0ENS_17SystemAllocPolicyEEEPN7mozilla6VectorI6RefPtrINS0_5TableEELm0ESD_EE # -- Begin function _ZNK2js4wasm6Module24instantiateImportedTableEP9JSContextRKNS0_9TableDescEN2JS6HandleIPNS_15WasmTableObjectEEEPNS7_8GCVectorISA_Lm0ENS_17SystemAllocPolicyEEEPN7mozilla6VectorI6RefPtrINS0_5TableEELm0ESD_EE
	.globl	_ZNK2js4wasm6Module24instantiateImportedTableEP9JSContextRKNS0_9TableDescEN2JS6HandleIPNS_15WasmTableObjectEEEPNS7_8GCVectorISA_Lm0ENS_17SystemAllocPolicyEEEPN7mozilla6VectorI6RefPtrINS0_5TableEELm0ESD_EE
	.p2align	4, 0x90
	.type	_ZNK2js4wasm6Module24instantiateImportedTableEP9JSContextRKNS0_9TableDescEN2JS6HandleIPNS_15WasmTableObjectEEEPNS7_8GCVectorISA_Lm0ENS_17SystemAllocPolicyEEEPN7mozilla6VectorI6RefPtrINS0_5TableEELm0ESD_EE,@function
_ZNK2js4wasm6Module24instantiateImportedTableEP9JSContextRKNS0_9TableDescEN2JS6HandleIPNS_15WasmTableObjectEEEPNS7_8GCVectorISA_Lm0ENS_17SystemAllocPolicyEEEPN7mozilla6VectorI6RefPtrINS0_5TableEELm0ESD_EE: # @_ZNK2js4wasm6Module24instantiateImportedTableEP9JSContextRKNS0_9TableDescEN2JS6HandleIPNS_15WasmTableObjectEEEPNS7_8GCVectorISA_Lm0ENS_17SystemAllocPolicyEEEPN7mozilla6VectorI6RefPtrINS0_5TableEELm0ESD_EE
	.cfi_startproc
	movq	(%rsp), %r10
	addq	%gs:(16), %r10
	movq	%gs:(8), %r11
	movq	%r10, (%rsp, %r11, 1)
# %bb.0:
###SPA## trampoline_fmt_64
	pushq	%rbp
	.cfi_def_cfa_offset 16
	pushq	%r15
	.cfi_def_cfa_offset 24
	pushq	%r14
	.cfi_def_cfa_offset 32
	pushq	%r13
	.cfi_def_cfa_offset 40
	pushq	%r12
	.cfi_def_cfa_offset 48
	pushq	%rbx
	.cfi_def_cfa_offset 56
	pushq	%rax
	.cfi_def_cfa_offset 64
	.cfi_offset %rbx, -56
	.cfi_offset %r12, -48
	.cfi_offset %r13, -40
	.cfi_offset %r14, -32
	.cfi_offset %r15, -24
	.cfi_offset %rbp, -16
	movq	%r9, %rbx
	movq	%r8, %r12
	movq	%rcx, %r15
	movq	%rdx, %rbp
	movq	%rsi, (%rsp)            # 8-byte Spill
	movq	%rdi, %r14
	movq	(%rcx), %rdi
	callq	_ZNK2js15WasmTableObject5tableEv
	movq	%rax, %r13
	movq	16(%r14), %rax
	movq	32(%rax), %rax
	cmpl	$1, 16(%rax)
	jne	.LBB19_1
###SPA### trampoline_fmt_64
.LBB19_8:
###SPA## trampoline_fmt_64
	movq	8(%rbx), %rax
	cmpq	16(%rbx), %rax
	jne	.LBB19_11
###SPA### trampoline_fmt_64
# %bb.9:
	movl	$1, %esi
	movq	%rbx, %rdi
	callq	_ZN7mozilla6VectorI6RefPtrIN2js4wasm5TableEELm0ENS2_17SystemAllocPolicyEE13growStorageByEm
	testb	%al, %al
	je	.LBB19_17
###SPA### trampoline_fmt_64
# %bb.10:
	movq	8(%rbx), %rax
.LBB19_11:
###SPA## trampoline_fmt_64
	movq	(%rbx), %rcx
	movq	%r13, (%rcx,%rax,8)
	lock		addq	$1, (%r13)
	addq	$1, 8(%rbx)
	movq	8(%r12), %rax
	cmpq	16(%r12), %rax
	jne	.LBB19_14
###SPA### trampoline_fmt_64
# %bb.12:
	movl	$1, %esi
	movq	%r12, %rdi
	callq	_ZN7mozilla6VectorIPN2js15WasmTableObjectELm0ENS1_17SystemAllocPolicyEE13growStorageByEm
	testb	%al, %al
	je	.LBB19_17
###SPA### trampoline_fmt_64
# %bb.13:
	movq	8(%r12), %rax
.LBB19_14:
###SPA## trampoline_fmt_64
	movq	(%r12), %rcx
	movq	(%r15), %rdx
	movq	%rdx, (%rcx,%rax,8)
	addq	$1, 8(%r12)
	movb	$1, %bl
	jmp	.LBB19_18
.LBB19_1:
###SPA## trampoline_fmt_64
	movl	116(%r13), %edx
	cmpl	12(%rbp), %edx
	jb	.LBB19_3
###SPA### trampoline_fmt_64
# %bb.2:
	movb	20(%rbp), %cl
	movl	16(%rbp), %eax
	cmpb	$1, %cl
	sbbl	%esi, %esi
	orl	%eax, %esi
	cmpl	%edx, %esi
	jae	.LBB19_5
###SPA### trampoline_fmt_64
.LBB19_3:
###SPA## trampoline_fmt_64
	leaq	_ZN2js15GetErrorMessageEPvj(%rip), %rsi
	leaq	.L.str.18(%rip), %r8
	xorl	%ebx, %ebx
	xorl	%edx, %edx
	movl	$323, %ecx              # imm = 0x143
.LBB19_4:
###SPA## trampoline_fmt_64
	xorl	%eax, %eax
	movq	(%rsp), %rdi            # 8-byte Reload
	callq	_Z24JS_ReportErrorNumberUTF8P9JSContextPFPK19JSErrorFormatStringPvjES4_jz
.LBB19_18:
###SPA## trampoline_fmt_64
	movl	%ebx, %eax
	addq	$8, %rsp
	.cfi_def_cfa_offset 56
	popq	%rbx
	.cfi_def_cfa_offset 48
	popq	%r12
	.cfi_def_cfa_offset 40
	popq	%r13
	.cfi_def_cfa_offset 32
	popq	%r14
	.cfi_def_cfa_offset 24
	popq	%r15
	.cfi_def_cfa_offset 16
	popq	%rbp
	.cfi_def_cfa_offset 8
	movq	%gs:(8), %r11
	movq	(%rsp, %r11, 1), %r11
	subq	%gs:(16), %r11
	addq	$8, %rsp
	jmpq	*%r11
.LBB19_5:
	.cfi_def_cfa_offset 64
###SPA## trampoline_fmt_64
	movq	120(%r13), %rdx
	movabsq	$1095216660480, %rsi    # imm = 0xFF00000000
	testq	%rsi, %rdx
	je	.LBB19_15
###SPA### trampoline_fmt_64
# %bb.6:
	testb	%cl, %cl
	je	.LBB19_8
###SPA### trampoline_fmt_64
# %bb.7:
	cmpl	%edx, %eax
	jb	.LBB19_16
###SPA### trampoline_fmt_64
	jmp	.LBB19_8
.LBB19_15:
###SPA## trampoline_fmt_64
	testb	%cl, %cl
	je	.LBB19_8
###SPA### trampoline_fmt_64
.LBB19_16:
###SPA## trampoline_fmt_64
	leaq	_ZN2js15GetErrorMessageEPvj(%rip), %rsi
	leaq	.L.str.18(%rip), %r8
	xorl	%ebx, %ebx
	xorl	%edx, %edx
	movl	$324, %ecx              # imm = 0x144
	jmp	.LBB19_4
.LBB19_17:
###SPA## trampoline_fmt_64
	movq	(%rsp), %rdi            # 8-byte Reload
	callq	_ZN2js17ReportOutOfMemoryEP9JSContext
	xorl	%ebx, %ebx
	jmp	.LBB19_18
.Lfunc_end19:
	.size	_ZNK2js4wasm6Module24instantiateImportedTableEP9JSContextRKNS0_9TableDescEN2JS6HandleIPNS_15WasmTableObjectEEEPNS7_8GCVectorISA_Lm0ENS_17SystemAllocPolicyEEEPN7mozilla6VectorI6RefPtrINS0_5TableEELm0ESD_EE, .Lfunc_end19-_ZNK2js4wasm6Module24instantiateImportedTableEP9JSContextRKNS0_9TableDescEN2JS6HandleIPNS_15WasmTableObjectEEEPNS7_8GCVectorISA_Lm0ENS_17SystemAllocPolicyEEEPN7mozilla6VectorI6RefPtrINS0_5TableEELm0ESD_EE
	.cfi_endproc
                                        # -- End function
	.section	.text._ZNK2js4wasm6Module21instantiateLocalTableEP9JSContextRKNS0_9TableDescEPN2JS8GCVectorIPNS_15WasmTableObjectELm0ENS_17SystemAllocPolicyEEEPN7mozilla6VectorI6RefPtrINS0_5TableEELm0ESB_EE,"ax",@progbits
	.hidden	_ZNK2js4wasm6Module21instantiateLocalTableEP9JSContextRKNS0_9TableDescEPN2JS8GCVectorIPNS_15WasmTableObjectELm0ENS_17SystemAllocPolicyEEEPN7mozilla6VectorI6RefPtrINS0_5TableEELm0ESB_EE # -- Begin function _ZNK2js4wasm6Module21instantiateLocalTableEP9JSContextRKNS0_9TableDescEPN2JS8GCVectorIPNS_15WasmTableObjectELm0ENS_17SystemAllocPolicyEEEPN7mozilla6VectorI6RefPtrINS0_5TableEELm0ESB_EE
	.globl	_ZNK2js4wasm6Module21instantiateLocalTableEP9JSContextRKNS0_9TableDescEPN2JS8GCVectorIPNS_15WasmTableObjectELm0ENS_17SystemAllocPolicyEEEPN7mozilla6VectorI6RefPtrINS0_5TableEELm0ESB_EE
	.p2align	4, 0x90
	.type	_ZNK2js4wasm6Module21instantiateLocalTableEP9JSContextRKNS0_9TableDescEPN2JS8GCVectorIPNS_15WasmTableObjectELm0ENS_17SystemAllocPolicyEEEPN7mozilla6VectorI6RefPtrINS0_5TableEELm0ESB_EE,@function
_ZNK2js4wasm6Module21instantiateLocalTableEP9JSContextRKNS0_9TableDescEPN2JS8GCVectorIPNS_15WasmTableObjectELm0ENS_17SystemAllocPolicyEEEPN7mozilla6VectorI6RefPtrINS0_5TableEELm0ESB_EE: # @_ZNK2js4wasm6Module21instantiateLocalTableEP9JSContextRKNS0_9TableDescEPN2JS8GCVectorIPNS_15WasmTableObjectELm0ENS_17SystemAllocPolicyEEEPN7mozilla6VectorI6RefPtrINS0_5TableEELm0ESB_EE
	.cfi_startproc
	movq	(%rsp), %r10
	addq	%gs:(16), %r10
	movq	%gs:(8), %r11
	movq	%r10, (%rsp, %r11, 1)
# %bb.0:
###SPA## trampoline_fmt_64
	pushq	%r15
	.cfi_def_cfa_offset 16
	pushq	%r14
	.cfi_def_cfa_offset 24
	pushq	%r12
	.cfi_def_cfa_offset 32
	pushq	%rbx
	.cfi_def_cfa_offset 40
	subq	$72, %rsp
	.cfi_def_cfa_offset 112
	.cfi_offset %rbx, -40
	.cfi_offset %r12, -32
	.cfi_offset %r14, -24
	.cfi_offset %r15, -16
	movq	%rsi, %rbx
	movq	%fs:40, %rax
	movq	%rax, 64(%rsp)
	cmpl	$10000001, 12(%rdx)     # imm = 0x989681
	jb	.LBB20_2
###SPA### trampoline_fmt_64
# %bb.1:
	leaq	_ZN2js15GetErrorMessageEPvj(%rip), %rsi
	xorl	%r14d, %r14d
	xorl	%edx, %edx
	movl	$343, %ecx              # imm = 0x157
	xorl	%eax, %eax
	movq	%rbx, %rdi
	callq	_Z24JS_ReportErrorNumberUTF8P9JSContextPFPK19JSErrorFormatStringPvjES4_jz
	movq	%fs:40, %rax
	cmpq	64(%rsp), %rax
	je	.LBB20_22
###SPA### trampoline_fmt_64
.LBB20_25:
###SPA## trampoline_fmt_64
	callq	__stack_chk_fail@PLT
.LBB20_2:
###SPA## trampoline_fmt_64
	movq	%r8, %r14
	movq	%rcx, %r12
	movq	$0, 56(%rsp)
	leaq	24(%rbx), %rax
	movq	%rax, 40(%rsp)
	movq	24(%rbx), %rcx
	movq	%rcx, 48(%rsp)
	leaq	40(%rsp), %r9
	movq	%r9, 24(%rbx)
	cmpb	$0, 4(%rdx)
	je	.LBB20_5
###SPA### trampoline_fmt_64
# %bb.3:
	movq	152(%rbx), %rsi
	movq	88(%rsi), %rsi
	movq	8(%rsi), %rdi
	movq	16(%rsi), %rsi
	movzbl	19(%rdi), %edi
	andl	$31, %edi
	movl	$163, %ecx
	subl	%edi, %ecx
	movabsq	$-562949953421312, %rdi # imm = 0xFFFE000000000000
	xorq	(%rsi,%rcx,8), %rdi
	leaq	32(%rsp), %r8
	movq	%rdi, 32(%rsp)
	movq	%rax, 16(%rsp)
	movq	%r9, 24(%rsp)
	leaq	16(%rsp), %rax
	movq	%rax, 24(%rbx)
	movl	12(%rdx), %esi
	movq	16(%rdx), %rax
	movq	%rax, 8(%rsp)
	movl	(%rdx), %ecx
	leaq	8(%rsp), %rdx
	movq	%rbx, %rdi
	callq	_ZN2js15WasmTableObject6createEP9JSContextjN7mozilla5MaybeIjEENS_4wasm9TableKindEN2JS6HandleIP8JSObjectEE
	movq	%rax, 56(%rsp)
	testq	%rax, %rax
	je	.LBB20_15
###SPA### trampoline_fmt_64
# %bb.4:
	movq	%rax, %rdi
	callq	_ZNK2js15WasmTableObject5tableEv
	movq	%rax, %r15
	lock		addq	$1, (%rax)
	movq	16(%rsp), %rax
	movq	24(%rsp), %rcx
	movq	%rcx, (%rax)
	movq	8(%r12), %rax
	cmpq	16(%r12), %rax
	je	.LBB20_7
###SPA### trampoline_fmt_64
	jmp	.LBB20_9
.LBB20_5:
###SPA## trampoline_fmt_64
	leaq	_ZZN2JS6HandleIPN2js15WasmTableObjectEEC1EDnE14ConstNullValue(%rip), %rcx
	leaq	16(%rsp), %rdi
	movq	%rbx, %rsi
	callq	_ZN2js4wasm5Table6createEP9JSContextRKNS0_9TableDescEN2JS6HandleIPNS_15WasmTableObjectEEE
	movq	16(%rsp), %r15
	testq	%r15, %r15
	je	.LBB20_23
###SPA### trampoline_fmt_64
# %bb.6:
	movq	8(%r12), %rax
	cmpq	16(%r12), %rax
	jne	.LBB20_9
###SPA### trampoline_fmt_64
.LBB20_7:
###SPA## trampoline_fmt_64
	movl	$1, %esi
	movq	%r12, %rdi
	callq	_ZN7mozilla6VectorIPN2js15WasmTableObjectELm0ENS1_17SystemAllocPolicyEE13growStorageByEm
	testb	%al, %al
	je	.LBB20_24
###SPA### trampoline_fmt_64
# %bb.8:
	movq	8(%r12), %rax
.LBB20_9:
###SPA## trampoline_fmt_64
	movq	(%r12), %rcx
	movq	56(%rsp), %rdx
	movq	%rdx, (%rcx,%rax,8)
	addq	$1, 8(%r12)
	movq	8(%r14), %rax
	cmpq	%rax, 16(%r14)
	jne	.LBB20_12
###SPA### trampoline_fmt_64
# %bb.10:
	movl	$1, %esi
	movq	%r14, %rdi
	callq	_ZN7mozilla6VectorI6RefPtrIN2js4wasm5TableEELm0ENS2_17SystemAllocPolicyEE13growStorageByEm
	testb	%al, %al
	je	.LBB20_24
###SPA### trampoline_fmt_64
# %bb.11:
	movq	8(%r14), %rax
.LBB20_12:
###SPA## trampoline_fmt_64
	leaq	1(%rax), %rcx
	movq	%rcx, 8(%r14)
	movq	(%r14), %rcx
	movq	%r15, (%rcx,%rax,8)
	movb	$1, %r14b
	testq	%r15, %r15
	je	.LBB20_14
###SPA### trampoline_fmt_64
# %bb.13:
	lock		addq	$1, (%r15)
	jmp	.LBB20_18
.LBB20_14:
###SPA## trampoline_fmt_64
	xorl	%r15d, %r15d
	jmp	.LBB20_18
.LBB20_15:
###SPA## trampoline_fmt_64
	movq	16(%rsp), %rax
	movq	24(%rsp), %rcx
	movq	%rcx, (%rax)
.LBB20_16:
###SPA## trampoline_fmt_64
	xorl	%r15d, %r15d
.LBB20_17:
###SPA## trampoline_fmt_64
	xorl	%r14d, %r14d
.LBB20_18:
###SPA## trampoline_fmt_64
	movq	40(%rsp), %rax
	movq	48(%rsp), %rcx
	movq	%rcx, (%rax)
	testq	%r15, %r15
	je	.LBB20_21
###SPA### trampoline_fmt_64
# %bb.19:
	lock		subq	$1, (%r15)
	jne	.LBB20_21
###SPA### trampoline_fmt_64
# %bb.20:
	movq	%r15, %rdi
	callq	_ZN2js4wasm5TableD2Ev
	movq	%r15, %rdi
	callq	free@PLT
.LBB20_21:
###SPA## trampoline_fmt_64
	movq	%fs:40, %rax
	cmpq	64(%rsp), %rax
	jne	.LBB20_25
###SPA### trampoline_fmt_64
.LBB20_22:
###SPA## trampoline_fmt_64
	movl	%r14d, %eax
	addq	$72, %rsp
	.cfi_def_cfa_offset 40
	popq	%rbx
	.cfi_def_cfa_offset 32
	popq	%r12
	.cfi_def_cfa_offset 24
	popq	%r14
	.cfi_def_cfa_offset 16
	popq	%r15
	.cfi_def_cfa_offset 8
	movq	%gs:(8), %r11
	movq	(%rsp, %r11, 1), %r11
	subq	%gs:(16), %r11
	addq	$8, %rsp
	jmpq	*%r11
.LBB20_23:
	.cfi_def_cfa_offset 112
###SPA## trampoline_fmt_64
	movq	%rbx, %rdi
	callq	_ZN2js17ReportOutOfMemoryEP9JSContext
	jmp	.LBB20_16
.LBB20_24:
###SPA## trampoline_fmt_64
	movq	%rbx, %rdi
	callq	_ZN2js17ReportOutOfMemoryEP9JSContext
	jmp	.LBB20_17
.Lfunc_end20:
	.size	_ZNK2js4wasm6Module21instantiateLocalTableEP9JSContextRKNS0_9TableDescEPN2JS8GCVectorIPNS_15WasmTableObjectELm0ENS_17SystemAllocPolicyEEEPN7mozilla6VectorI6RefPtrINS0_5TableEELm0ESB_EE, .Lfunc_end20-_ZNK2js4wasm6Module21instantiateLocalTableEP9JSContextRKNS0_9TableDescEPN2JS8GCVectorIPNS_15WasmTableObjectELm0ENS_17SystemAllocPolicyEEEPN7mozilla6VectorI6RefPtrINS0_5TableEELm0ESB_EE
	.cfi_endproc
                                        # -- End function
	.section	.text._ZNK2js4wasm6Module17instantiateTablesEP9JSContextRKN2JS8GCVectorIPNS_15WasmTableObjectELm0ENS_17SystemAllocPolicyEEENS4_13MutableHandleIS9_EEPN7mozilla6VectorI6RefPtrINS0_5TableEELm0ES8_EE,"ax",@progbits
	.hidden	_ZNK2js4wasm6Module17instantiateTablesEP9JSContextRKN2JS8GCVectorIPNS_15WasmTableObjectELm0ENS_17SystemAllocPolicyEEENS4_13MutableHandleIS9_EEPN7mozilla6VectorI6RefPtrINS0_5TableEELm0ES8_EE # -- Begin function _ZNK2js4wasm6Module17instantiateTablesEP9JSContextRKN2JS8GCVectorIPNS_15WasmTableObjectELm0ENS_17SystemAllocPolicyEEENS4_13MutableHandleIS9_EEPN7mozilla6VectorI6RefPtrINS0_5TableEELm0ES8_EE
	.globl	_ZNK2js4wasm6Module17instantiateTablesEP9JSContextRKN2JS8GCVectorIPNS_15WasmTableObjectELm0ENS_17SystemAllocPolicyEEENS4_13MutableHandleIS9_EEPN7mozilla6VectorI6RefPtrINS0_5TableEELm0ES8_EE
	.p2align	4, 0x90
	.type	_ZNK2js4wasm6Module17instantiateTablesEP9JSContextRKN2JS8GCVectorIPNS_15WasmTableObjectELm0ENS_17SystemAllocPolicyEEENS4_13MutableHandleIS9_EEPN7mozilla6VectorI6RefPtrINS0_5TableEELm0ES8_EE,@function
_ZNK2js4wasm6Module17instantiateTablesEP9JSContextRKN2JS8GCVectorIPNS_15WasmTableObjectELm0ENS_17SystemAllocPolicyEEENS4_13MutableHandleIS9_EEPN7mozilla6VectorI6RefPtrINS0_5TableEELm0ES8_EE: # @_ZNK2js4wasm6Module17instantiateTablesEP9JSContextRKN2JS8GCVectorIPNS_15WasmTableObjectELm0ENS_17SystemAllocPolicyEEENS4_13MutableHandleIS9_EEPN7mozilla6VectorI6RefPtrINS0_5TableEELm0ES8_EE
	.cfi_startproc
	movq	(%rsp), %r10
	addq	%gs:(16), %r10
	movq	%gs:(8), %r11
	movq	%r10, (%rsp, %r11, 1)
# %bb.0:
###SPA## trampoline_fmt_64
	pushq	%rbp
	.cfi_def_cfa_offset 16
	pushq	%r15
	.cfi_def_cfa_offset 24
	pushq	%r14
	.cfi_def_cfa_offset 32
	pushq	%r13
	.cfi_def_cfa_offset 40
	pushq	%r12
	.cfi_def_cfa_offset 48
	pushq	%rbx
	.cfi_def_cfa_offset 56
	subq	$56, %rsp
	.cfi_def_cfa_offset 112
	.cfi_offset %rbx, -56
	.cfi_offset %r12, -48
	.cfi_offset %r13, -40
	.cfi_offset %r14, -32
	.cfi_offset %r15, -24
	.cfi_offset %rbp, -16
	movq	%r8, (%rsp)             # 8-byte Spill
	movq	%rcx, %r12
	movq	%rdx, %rbx
	movq	%fs:40, %rax
	movq	%rax, 48(%rsp)
	movq	%rdi, 16(%rsp)          # 8-byte Spill
	movq	16(%rdi), %rax
	movq	32(%rax), %rcx
	movq	136(%rcx), %rdx
	movb	$1, %al
	testq	%rdx, %rdx
	je	.LBB21_7
###SPA### trampoline_fmt_64
# %bb.1:
	movq	%rsi, %rbp
	movq	128(%rcx), %r14
	leaq	24(%rsi), %rax
	movq	%rax, 8(%rsp)           # 8-byte Spill
	shlq	$3, %rdx
	leaq	(%rdx,%rdx,2), %r13
	xorl	%r15d, %r15d
	.p2align	4, 0x90
.LBB21_2:                               # =>This Inner Loop Header: Depth=1
###SPA## trampoline_fmt_64
	movl	%r15d, %r15d
	cmpq	%r15, 8(%rbx)
	jbe	.LBB21_4
###SPA### trampoline_fmt_64
# %bb.3:                                #   in Loop: Header=BB21_2 Depth=1
	movq	(%rbx), %rax
	movq	(%rax,%r15,8), %rax
	movq	%rax, 40(%rsp)
	movq	8(%rsp), %rax           # 8-byte Reload
	movq	%rax, 24(%rsp)
	movq	24(%rbp), %rax
	movq	%rax, 32(%rsp)
	leaq	24(%rsp), %rax
	movq	%rax, 24(%rbp)
	movq	16(%rsp), %rdi          # 8-byte Reload
	movq	%rbp, %rsi
	movq	%r14, %rdx
	leaq	40(%rsp), %rcx
	movq	%r12, %r8
	movq	(%rsp), %r9             # 8-byte Reload
	callq	_ZNK2js4wasm6Module24instantiateImportedTableEP9JSContextRKNS0_9TableDescEN2JS6HandleIPNS_15WasmTableObjectEEEPNS7_8GCVectorISA_Lm0ENS_17SystemAllocPolicyEEEPN7mozilla6VectorI6RefPtrINS0_5TableEELm0ESD_EE
	movq	24(%rsp), %rcx
	movq	32(%rsp), %rdx
	movq	%rdx, (%rcx)
	testb	%al, %al
	je	.LBB21_10
###SPA### trampoline_fmt_64
.LBB21_5:                               #   in Loop: Header=BB21_2 Depth=1
###SPA## trampoline_fmt_64
	addl	$1, %r15d
	addq	$24, %r14
	addq	$-24, %r13
	jne	.LBB21_2
###SPA### trampoline_fmt_64
	jmp	.LBB21_6
	.p2align	4, 0x90
.LBB21_4:                               #   in Loop: Header=BB21_2 Depth=1
###SPA## trampoline_fmt_64
	movq	%rbp, %rsi
	movq	%r14, %rdx
	movq	%r12, %rcx
	movq	(%rsp), %r8             # 8-byte Reload
	callq	_ZNK2js4wasm6Module21instantiateLocalTableEP9JSContextRKNS0_9TableDescEPN2JS8GCVectorIPNS_15WasmTableObjectELm0ENS_17SystemAllocPolicyEEEPN7mozilla6VectorI6RefPtrINS0_5TableEELm0ESB_EE
	testb	%al, %al
	jne	.LBB21_5
###SPA### trampoline_fmt_64
.LBB21_10:
###SPA## trampoline_fmt_64
	xorl	%eax, %eax
	movq	%fs:40, %rcx
	cmpq	48(%rsp), %rcx
	je	.LBB21_8
###SPA### trampoline_fmt_64
.LBB21_11:
###SPA## trampoline_fmt_64
	callq	__stack_chk_fail@PLT
.LBB21_6:
###SPA## trampoline_fmt_64
	movb	$1, %al
.LBB21_7:
###SPA## trampoline_fmt_64
	movq	%fs:40, %rcx
	cmpq	48(%rsp), %rcx
	jne	.LBB21_11
###SPA### trampoline_fmt_64
.LBB21_8:
                                        # kill: def $al killed $al killed $eax
###SPA## trampoline_fmt_64
	addq	$56, %rsp
	.cfi_def_cfa_offset 56
	popq	%rbx
	.cfi_def_cfa_offset 48
	popq	%r12
	.cfi_def_cfa_offset 40
	popq	%r13
	.cfi_def_cfa_offset 32
	popq	%r14
	.cfi_def_cfa_offset 24
	popq	%r15
	.cfi_def_cfa_offset 16
	popq	%rbp
	.cfi_def_cfa_offset 8
	movq	%gs:(8), %r11
	movq	(%rsp, %r11, 1), %r11
	subq	%gs:(16), %r11
	addq	$8, %rsp
	jmpq	*%r11
.Lfunc_end21:
	.size	_ZNK2js4wasm6Module17instantiateTablesEP9JSContextRKN2JS8GCVectorIPNS_15WasmTableObjectELm0ENS_17SystemAllocPolicyEEENS4_13MutableHandleIS9_EEPN7mozilla6VectorI6RefPtrINS0_5TableEELm0ES8_EE, .Lfunc_end21-_ZNK2js4wasm6Module17instantiateTablesEP9JSContextRKN2JS8GCVectorIPNS_15WasmTableObjectELm0ENS_17SystemAllocPolicyEEENS4_13MutableHandleIS9_EEPN7mozilla6VectorI6RefPtrINS0_5TableEELm0ES8_EE
	.cfi_endproc
                                        # -- End function
	.section	.rodata.cst16,"aM",@progbits,16
	.p2align	4               # -- Begin function _ZNK2js4wasm6Module18instantiateGlobalsEP9JSContextRKN2JS8GCVectorINS0_3ValELm0ENS_17SystemAllocPolicyEEERNS5_IPNS_16WasmGlobalObjectELm0ES7_EE
.LCPI22_0:
	.zero	16
	.section	.text._ZNK2js4wasm6Module18instantiateGlobalsEP9JSContextRKN2JS8GCVectorINS0_3ValELm0ENS_17SystemAllocPolicyEEERNS5_IPNS_16WasmGlobalObjectELm0ES7_EE,"ax",@progbits
	.hidden	_ZNK2js4wasm6Module18instantiateGlobalsEP9JSContextRKN2JS8GCVectorINS0_3ValELm0ENS_17SystemAllocPolicyEEERNS5_IPNS_16WasmGlobalObjectELm0ES7_EE
	.globl	_ZNK2js4wasm6Module18instantiateGlobalsEP9JSContextRKN2JS8GCVectorINS0_3ValELm0ENS_17SystemAllocPolicyEEERNS5_IPNS_16WasmGlobalObjectELm0ES7_EE
	.p2align	4, 0x90
	.type	_ZNK2js4wasm6Module18instantiateGlobalsEP9JSContextRKN2JS8GCVectorINS0_3ValELm0ENS_17SystemAllocPolicyEEERNS5_IPNS_16WasmGlobalObjectELm0ES7_EE,@function
_ZNK2js4wasm6Module18instantiateGlobalsEP9JSContextRKN2JS8GCVectorINS0_3ValELm0ENS_17SystemAllocPolicyEEERNS5_IPNS_16WasmGlobalObjectELm0ES7_EE: # @_ZNK2js4wasm6Module18instantiateGlobalsEP9JSContextRKN2JS8GCVectorINS0_3ValELm0ENS_17SystemAllocPolicyEEERNS5_IPNS_16WasmGlobalObjectELm0ES7_EE
	.cfi_startproc
	movq	(%rsp), %r10
	addq	%gs:(16), %r10
	movq	%gs:(8), %r11
	movq	%r10, (%rsp, %r11, 1)
# %bb.0:
###SPA## trampoline_fmt_64
	pushq	%rbp
	.cfi_def_cfa_offset 16
	pushq	%r15
	.cfi_def_cfa_offset 24
	pushq	%r14
	.cfi_def_cfa_offset 32
	pushq	%r13
	.cfi_def_cfa_offset 40
	pushq	%r12
	.cfi_def_cfa_offset 48
	pushq	%rbx
	.cfi_def_cfa_offset 56
	subq	$152, %rsp
	.cfi_def_cfa_offset 208
	.cfi_offset %rbx, -56
	.cfi_offset %r12, -48
	.cfi_offset %r13, -40
	.cfi_offset %r14, -32
	.cfi_offset %r15, -24
	.cfi_offset %rbp, -16
	movq	%rdx, 32(%rsp)          # 8-byte Spill
	movq	%fs:40, %rax
	movq	%rax, 144(%rsp)
	movq	56(%rdi), %r14
	movb	$1, %al
	testq	%r14, %r14
	je	.LBB22_36
###SPA### trampoline_fmt_64
# %bb.1:
	movq	%rcx, %rbp
	movq	%rsi, %r12
	movq	48(%rdi), %rbx
	movq	16(%rdi), %rax
	movq	32(%rax), %r15
	leaq	104(%rsi), %rax
	movq	%rax, 40(%rsp)          # 8-byte Spill
	leaq	24(%rsi), %rax
	movq	%rax, 24(%rsp)          # 8-byte Spill
	shlq	$4, %r14
	movq	%rcx, 16(%rsp)          # 8-byte Spill
	movq	%r15, 8(%rsp)           # 8-byte Spill
	jmp	.LBB22_2
.LBB22_38:                              #   in Loop: Header=BB22_2 Depth=1
###SPA## trampoline_fmt_64
	movq	%r12, %rdi
	callq	_ZN2js17ReportOutOfMemoryEP9JSContext
	xorl	%eax, %eax
	movq	8(%rsp), %r15           # 8-byte Reload
	jmp	.LBB22_32
	.p2align	4, 0x90
.LBB22_2:                               # =>This Inner Loop Header: Depth=1
###SPA## trampoline_fmt_64
	cmpl	$3, 8(%rbx)
	jne	.LBB22_34
###SPA### trampoline_fmt_64
# %bb.3:                                #   in Loop: Header=BB22_2 Depth=1
	movq	%rbx, %rdi
	callq	_ZNK2js4wasm6Export11globalIndexEv
	movl	%eax, %r13d
	movq	104(%r15), %rax
	cmpq	%r13, 8(%rbp)
	jbe	.LBB22_5
###SPA### trampoline_fmt_64
# %bb.4:                                #   in Loop: Header=BB22_2 Depth=1
	movq	(%rbp), %rcx
	cmpq	$0, (%rcx,%r13,8)
	jne	.LBB22_34
###SPA### trampoline_fmt_64
.LBB22_5:                               #   in Loop: Header=BB22_2 Depth=1
###SPA## trampoline_fmt_64
	leaq	(,%r13,2), %rdx
	addq	%r13, %rdx
	movq	%rdx, %rcx
	shlq	$4, %rcx
	leaq	(%rax,%rcx), %rsi
	leaq	_ZTVN2js15RootedTraceableINS_4wasm3ValEEE+16(%rip), %rdi
	movq	%rdi, 112(%rsp)
	movl	$255, 120(%rsp)
	movl	$0, 128(%rsp)
	movq	40(%rsp), %rbp          # 8-byte Reload
	movq	%rbp, 96(%rsp)
	movq	(%rbp), %rdi
	movq	%rdi, 104(%rsp)
	leaq	96(%rsp), %rdi
	movq	%rdi, (%rbp)
	movl	40(%rax,%rcx), %edi
	cmpl	$2, %edi
	je	.LBB22_9
###SPA### trampoline_fmt_64
# %bb.6:                                #   in Loop: Header=BB22_2 Depth=1
	cmpl	$1, %edi
	je	.LBB22_15
###SPA### trampoline_fmt_64
# %bb.7:                                #   in Loop: Header=BB22_2 Depth=1
	testl	%edi, %edi
	jne	.LBB22_16
###SPA### trampoline_fmt_64
# %bb.8:                                #   in Loop: Header=BB22_2 Depth=1
	movq	32(%rsp), %rsi          # 8-byte Reload
	movq	(%rsi), %rsi
	movups	(%rsi,%rdx,8), %xmm0
	movq	16(%rsi,%rdx,8), %rdx
	leaq	120(%rsp), %rsi
	movq	%rdx, 16(%rsi)
	movups	%xmm0, (%rsi)
	jmp	.LBB22_19
.LBB22_15:                              #   in Loop: Header=BB22_2 Depth=1
###SPA## trampoline_fmt_64
	movl	(%rsi), %edx
	jmp	.LBB22_18
.LBB22_9:                               #   in Loop: Header=BB22_2 Depth=1
###SPA## trampoline_fmt_64
	movl	(%rsi), %edx
	cmpl	$2, %edx
	je	.LBB22_10
###SPA### trampoline_fmt_64
# %bb.11:                               #   in Loop: Header=BB22_2 Depth=1
	cmpl	$1, %edx
	je	.LBB22_17
###SPA### trampoline_fmt_64
# %bb.12:                               #   in Loop: Header=BB22_2 Depth=1
	testl	%edx, %edx
	jne	.LBB22_14
###SPA### trampoline_fmt_64
# %bb.13:                               #   in Loop: Header=BB22_2 Depth=1
	movl	8(%rax,%rcx), %edx
	jmp	.LBB22_18
.LBB22_17:                              #   in Loop: Header=BB22_2 Depth=1
###SPA## trampoline_fmt_64
	movl	12(%rax,%rcx), %edx
	jmp	.LBB22_18
.LBB22_10:                              #   in Loop: Header=BB22_2 Depth=1
###SPA## trampoline_fmt_64
	movl	$1073741680, %edx       # imm = 0x3FFFFF70
	.p2align	4, 0x90
.LBB22_18:                              #   in Loop: Header=BB22_2 Depth=1
###SPA## trampoline_fmt_64
	movl	%edx, 120(%rsp)
	xorps	%xmm0, %xmm0
	movups	%xmm0, 128(%rsp)
.LBB22_19:                              #   in Loop: Header=BB22_2 Depth=1
###SPA## trampoline_fmt_64
	leaq	(%rax,%rcx), %rdx
	addq	$40, %rdx
	movq	152(%r12), %rsi
	movq	88(%rsi), %rsi
	movq	8(%rsi), %rdi
	movq	16(%rsi), %rsi
	movzbl	19(%rdi), %edi
	andl	$31, %edi
	movl	$164, %ebp
	subl	%edi, %ebp
	movq	(%rsi,%rbp,8), %rsi
	movabsq	$-562949953421312, %rdi # imm = 0xFFFE000000000000
	xorq	%rdi, %rsi
	movq	%rsi, 88(%rsp)
	movq	24(%rsp), %rsi          # 8-byte Reload
	movq	%rsi, 72(%rsp)
	movq	24(%r12), %rsi
	movq	%rsi, 80(%rsp)
	leaq	72(%rsp), %rsi
	movq	%rsi, 24(%r12)
	cmpl	$1, (%rdx)
	jne	.LBB22_21
###SPA### trampoline_fmt_64
# %bb.20:                               #   in Loop: Header=BB22_2 Depth=1
	xorl	%eax, %eax
	jmp	.LBB22_22
.LBB22_21:                              #   in Loop: Header=BB22_2 Depth=1
###SPA## trampoline_fmt_64
	cmpb	$0, 36(%rax,%rcx)
	setne	%al
.LBB22_22:                              #   in Loop: Header=BB22_2 Depth=1
###SPA## trampoline_fmt_64
	movq	16(%rsp), %rbp          # 8-byte Reload
	movzbl	%al, %edx
	movq	%r12, %rdi
	leaq	120(%rsp), %rsi
	leaq	88(%rsp), %rcx
	callq	_ZN2js16WasmGlobalObject6createEP9JSContextN2JS6HandleINS_4wasm3ValEEEbNS4_IP8JSObjectEE
	movq	%rax, 64(%rsp)
	movq	24(%rsp), %rcx          # 8-byte Reload
	movq	%rcx, 48(%rsp)
	movq	24(%r12), %rcx
	movq	%rcx, 56(%rsp)
	leaq	48(%rsp), %rcx
	movq	%rcx, 24(%r12)
	testq	%rax, %rax
	je	.LBB22_23
###SPA### trampoline_fmt_64
# %bb.24:                               #   in Loop: Header=BB22_2 Depth=1
	movq	8(%rbp), %rdi
	cmpq	%r13, %rdi
	ja	.LBB22_31
###SPA### trampoline_fmt_64
# %bb.25:                               #   in Loop: Header=BB22_2 Depth=1
	leaq	1(%r13), %r15
	subq	%rdi, %r15
	movq	16(%rbp), %rax
	subq	%rdi, %rax
	cmpq	%r15, %rax
	jae	.LBB22_28
###SPA### trampoline_fmt_64
# %bb.26:                               #   in Loop: Header=BB22_2 Depth=1
	movq	%rbp, %rdi
	movq	%r15, %rsi
	callq	_ZN7mozilla6VectorIPN2js16WasmGlobalObjectELm0ENS1_17SystemAllocPolicyEE13growStorageByEm
	testb	%al, %al
	je	.LBB22_38
###SPA### trampoline_fmt_64
# %bb.27:                               #   in Loop: Header=BB22_2 Depth=1
	movq	8(%rbp), %rdi
.LBB22_28:                              #   in Loop: Header=BB22_2 Depth=1
###SPA## trampoline_fmt_64
	testq	%r15, %r15
	jle	.LBB22_30
###SPA### trampoline_fmt_64
# %bb.29:                               #   in Loop: Header=BB22_2 Depth=1
	shlq	$3, %rdi
	addq	(%rbp), %rdi
	leaq	(%rdi,%r15,8), %rax
	movq	%rdi, %rcx
	notq	%rcx
	leaq	(%rcx,%rax), %rdx
	addq	$8, %rdx
	andq	$-8, %rdx
	xorl	%esi, %esi
	callq	memset@PLT
	movq	8(%rbp), %rdi
.LBB22_30:                              #   in Loop: Header=BB22_2 Depth=1
###SPA## trampoline_fmt_64
	addq	%r15, %rdi
	movq	%rdi, 8(%rbp)
	movq	64(%rsp), %rax
	movq	8(%rsp), %r15           # 8-byte Reload
.LBB22_31:                              #   in Loop: Header=BB22_2 Depth=1
###SPA## trampoline_fmt_64
	movq	(%rbp), %rcx
	movq	%rax, (%rcx,%r13,8)
	movb	$1, %al
	jmp	.LBB22_32
.LBB22_23:                              #   in Loop: Header=BB22_2 Depth=1
###SPA## trampoline_fmt_64
	xorl	%eax, %eax
.LBB22_32:                              #   in Loop: Header=BB22_2 Depth=1
###SPA## trampoline_fmt_64
	movq	48(%rsp), %rcx
	movq	56(%rsp), %rdx
	movq	%rdx, (%rcx)
	movq	72(%rsp), %rcx
	movq	80(%rsp), %rdx
	movq	%rdx, (%rcx)
	movq	96(%rsp), %rcx
	movq	104(%rsp), %rdx
	movq	%rdx, (%rcx)
	testb	%al, %al
	je	.LBB22_33
###SPA### trampoline_fmt_64
.LBB22_34:                              #   in Loop: Header=BB22_2 Depth=1
###SPA## trampoline_fmt_64
	addq	$16, %rbx
	addq	$-16, %r14
	jne	.LBB22_2
###SPA### trampoline_fmt_64
# %bb.35:
	movb	$1, %al
.LBB22_36:
###SPA## trampoline_fmt_64
	movq	%fs:40, %rcx
	cmpq	144(%rsp), %rcx
	jne	.LBB22_37
###SPA### trampoline_fmt_64
.LBB22_39:
                                        # kill: def $al killed $al killed $eax
###SPA## trampoline_fmt_64
	addq	$152, %rsp
	.cfi_def_cfa_offset 56
	popq	%rbx
	.cfi_def_cfa_offset 48
	popq	%r12
	.cfi_def_cfa_offset 40
	popq	%r13
	.cfi_def_cfa_offset 32
	popq	%r14
	.cfi_def_cfa_offset 24
	popq	%r15
	.cfi_def_cfa_offset 16
	popq	%rbp
	.cfi_def_cfa_offset 8
	movq	%gs:(8), %r11
	movq	(%rsp, %r11, 1), %r11
	subq	%gs:(16), %r11
	addq	$8, %rsp
	jmpq	*%r11
.LBB22_33:
	.cfi_def_cfa_offset 208
###SPA## trampoline_fmt_64
	xorl	%eax, %eax
	movq	%fs:40, %rcx
	cmpq	144(%rsp), %rcx
	je	.LBB22_39
###SPA### trampoline_fmt_64
.LBB22_37:
###SPA## trampoline_fmt_64
	callq	__stack_chk_fail@PLT
.LBB22_16:
###SPA## trampoline_fmt_64
	leaq	.L.str.50(%rip), %rax
	movq	gMozCrashReason@GOTPCREL(%rip), %rcx
	movq	%rax, (%rcx)
	movl	$1949, 0                # imm = 0x79D
	callq	abort@PLT
.LBB22_14:
###SPA## trampoline_fmt_64
	leaq	.L.str.51(%rip), %rax
	movq	gMozCrashReason@GOTPCREL(%rip), %rcx
	movq	%rax, (%rcx)
	movl	$1753, 0                # imm = 0x6D9
	callq	abort@PLT
.Lfunc_end22:
	.size	_ZNK2js4wasm6Module18instantiateGlobalsEP9JSContextRKN2JS8GCVectorINS0_3ValELm0ENS_17SystemAllocPolicyEEERNS5_IPNS_16WasmGlobalObjectELm0ES7_EE, .Lfunc_end22-_ZNK2js4wasm6Module18instantiateGlobalsEP9JSContextRKN2JS8GCVectorINS0_3ValELm0ENS_17SystemAllocPolicyEEERNS5_IPNS_16WasmGlobalObjectELm0ES7_EE
	.cfi_endproc
                                        # -- End function
	.section	.rodata.cst16,"aM",@progbits,16
	.p2align	4               # -- Begin function _ZNK2js4wasm6Module19getDebugEnabledCodeEv
.LCPI23_0:
	.zero	16
	.section	.text._ZNK2js4wasm6Module19getDebugEnabledCodeEv,"ax",@progbits
	.hidden	_ZNK2js4wasm6Module19getDebugEnabledCodeEv
	.globl	_ZNK2js4wasm6Module19getDebugEnabledCodeEv
	.p2align	4, 0x90
	.type	_ZNK2js4wasm6Module19getDebugEnabledCodeEv,@function
_ZNK2js4wasm6Module19getDebugEnabledCodeEv: # @_ZNK2js4wasm6Module19getDebugEnabledCodeEv
	.cfi_startproc
	movq	(%rsp), %r10
	addq	%gs:(16), %r10
	movq	%gs:(8), %r11
	movq	%r10, (%rsp, %r11, 1)
# %bb.0:
###SPA## trampoline_fmt_64
	pushq	%rbp
	.cfi_def_cfa_offset 16
	pushq	%r15
	.cfi_def_cfa_offset 24
	pushq	%r14
	.cfi_def_cfa_offset 32
	pushq	%r13
	.cfi_def_cfa_offset 40
	pushq	%r12
	.cfi_def_cfa_offset 48
	pushq	%rbx
	.cfi_def_cfa_offset 56
	subq	$120, %rsp
	.cfi_def_cfa_offset 176
	.cfi_offset %rbx, -56
	.cfi_offset %r12, -48
	.cfi_offset %r13, -40
	.cfi_offset %r14, -32
	.cfi_offset %r15, -24
	.cfi_offset %rbp, -16
	movq	%rsi, %rbp
	movq	%rdi, %r14
	movq	%fs:40, %rax
	movq	%rax, 112(%rsp)
	movl	$1, %ecx
	xorl	%eax, %eax
	lock		cmpxchgl	%ecx, 144(%rsi)
	jne	.LBB23_3
###SPA### trampoline_fmt_64
# %bb.1:
	movq	16(%rbp), %rax
	movq	%rax, (%r14)
	testq	%rax, %rax
	je	.LBB23_60
###SPA### trampoline_fmt_64
# %bb.2:
	lock		addq	$1, (%rax)
	movq	%fs:40, %rax
	cmpq	112(%rsp), %rax
	je	.LBB23_63
###SPA### trampoline_fmt_64
	jmp	.LBB23_61
.LBB23_3:
###SPA## trampoline_fmt_64
	movq	152(%rbp), %rdx
	movq	160(%rbp), %rcx
	leaq	96(%rsp), %rdi
	xorl	%esi, %esi
	callq	_ZN2js4wasm13ModuleSegment6createENS0_4TierERKN7mozilla6VectorIhLm0ENS_17SystemAllocPolicyEEERKNS0_8LinkDataE
	cmpq	$0, 96(%rsp)
	je	.LBB23_4
###SPA### trampoline_fmt_64
# %bb.5:
	movq	_ZN2js11MallocArenaE(%rip), %rdi
	movl	$536, %esi              # imm = 0x218
	callq	moz_arena_malloc@PLT
	testq	%rax, %rax
	je	.LBB23_6
###SPA### trampoline_fmt_64
# %bb.9:
	movq	%rax, %rbx
	movl	$0, (%rax)
	movl	$8, %eax
	movq	%rax, %xmm0
	pslldq	$8, %xmm0               # xmm0 = zero,zero,zero,zero,zero,zero,zero,zero,xmm0[0,1,2,3,4,5,6,7]
	movdqu	%xmm0, 16(%rbx)
	leaq	32(%rbx), %rax
	movq	%rax, 8(%rbx)
	xorps	%xmm1, %xmm1
	movups	%xmm1, 72(%rbx)
	movq	$28, 64(%rbx)
	movups	%xmm1, 96(%rbx)
	movq	$8, 88(%rbx)
	movups	%xmm1, 120(%rbx)
	movq	$8, 112(%rbx)
	movups	%xmm1, 144(%rbx)
	movq	$8, 136(%rbx)
	movups	%xmm1, 168(%rbx)
	movq	$8, 160(%rbx)
	movups	%xmm1, 192(%rbx)
	movq	$8, 184(%rbx)
	movups	%xmm1, 216(%rbx)
	movq	$8, 208(%rbx)
	movups	%xmm1, 240(%rbx)
	movq	$8, 232(%rbx)
	movups	%xmm1, 264(%rbx)
	movq	$8, 256(%rbx)
	movups	%xmm1, 288(%rbx)
	movq	$8, 280(%rbx)
	movups	%xmm1, 312(%rbx)
	movq	$8, 304(%rbx)
	movups	%xmm1, 336(%rbx)
	movq	$8, 328(%rbx)
	movups	%xmm1, 360(%rbx)
	movq	$8, 352(%rbx)
	movups	%xmm1, 384(%rbx)
	movq	$8, 376(%rbx)
	movups	%xmm1, 408(%rbx)
	movq	$192, 400(%rbx)
	movups	%xmm1, 432(%rbx)
	movq	$192, 424(%rbx)
	movb	$0, 448(%rbx)
	movups	%xmm1, 464(%rbx)
	movq	$16, 456(%rbx)
	movdqu	%xmm0, 488(%rbx)
	movq	%rbx, %rax
	addq	$504, %rax              # imm = 0x1F8
	movq	%rax, 480(%rbx)
	movq	16(%rbp), %rdi
	xorl	%esi, %esi
	callq	_ZNK2js4wasm4Code8codeTierENS0_4TierE
	movq	8(%rax), %rsi
	movq	%rbx, %rdi
	callq	_ZN2js4wasm12MetadataTier5cloneERKS1_
	testb	%al, %al
	je	.LBB23_7
###SPA### trampoline_fmt_64
# %bb.10:
	movq	_ZN2js11MallocArenaE(%rip), %rdi
	movl	$120, %esi
	callq	moz_arena_malloc@PLT
	testq	%rax, %rax
	je	.LBB23_7
###SPA### trampoline_fmt_64
# %bb.11:
	movq	%rax, %r15
	movq	96(%rsp), %rax
	movq	$0, 96(%rsp)
	movq	$0, (%r15)
	movq	%rbx, 8(%r15)
	movq	%rax, 16(%r15)
	movq	%r15, %rdi
	addq	$24, %rdi
	callq	_ZN7mozilla6detail9MutexImplC2Ev@PLT
	pxor	%xmm0, %xmm0
	movdqu	%xmm0, 72(%r15)
	movq	$8, 64(%r15)
	movdqu	%xmm0, 96(%r15)
	movq	$24, 88(%r15)
	movq	$0, 112(%r15)
	movdqu	%xmm0, 72(%rsp)
	movq	16(%r15), %rbx
	movq	16(%rbp), %rdi
	xorl	%esi, %esi
	callq	_ZNK2js4wasm4Code8codeTierENS0_4TierE
	movq	8(%rax), %rcx
	addq	$64, %rcx
	leaq	64(%rsp), %rdi
	xorl	%esi, %esi
	movq	%rbx, %rdx
	callq	_ZN2js4wasm10JumpTables4initENS0_11CompileModeERKNS0_13ModuleSegmentERKN7mozilla6VectorINS0_9CodeRangeELm0ENS_17SystemAllocPolicyEEE
	testb	%al, %al
	je	.LBB23_12
###SPA### trampoline_fmt_64
# %bb.13:
	pxor	%xmm0, %xmm0
	movdqu	%xmm0, 48(%rsp)
	movq	$32, 40(%rsp)
	movq	16(%rbp), %rax
	movq	144(%rax), %r12
	testq	%r12, %r12
	je	.LBB23_14
###SPA### trampoline_fmt_64
# %bb.15:
	leaq	40(%rsp), %rdi
	movq	%r12, %rsi
	callq	_ZN7mozilla6VectorIN2js4wasm10StructTypeELm0ENS1_17SystemAllocPolicyEE13growStorageByEm
	testb	%al, %al
	je	.LBB23_62
###SPA### trampoline_fmt_64
# %bb.16:
	movq	48(%rsp), %rsi
	testq	%r12, %r12
	jle	.LBB23_24
###SPA### trampoline_fmt_64
# %bb.17:
	movq	40(%rsp), %rdx
	shlq	$5, %rsi
	leaq	(%rdx,%rsi), %rax
	movq	%r12, %rcx
	shlq	$5, %rcx
	addq	%rax, %rcx
	leaq	(%rdx,%rsi), %rdi
	addq	$32, %rdi
	cmpq	%rdi, %rcx
	cmovaq	%rcx, %rdi
	subq	%rsi, %rdi
	notq	%rdx
	addq	%rdi, %rdx
	movl	%edx, %esi
	shrl	$5, %esi
	addl	$1, %esi
	andq	$3, %rsi
	je	.LBB23_20
###SPA### trampoline_fmt_64
# %bb.18:
	negq	%rsi
	pxor	%xmm0, %xmm0
	.p2align	4, 0x90
.LBB23_19:                              # =>This Inner Loop Header: Depth=1
###SPA## trampoline_fmt_64
	movdqu	%xmm0, 8(%rax)
	movq	$12, (%rax)
	movl	$0, 24(%rax)
	movb	$1, 28(%rax)
	addq	$32, %rax
	addq	$1, %rsi
	jne	.LBB23_19
###SPA### trampoline_fmt_64
.LBB23_20:
###SPA## trampoline_fmt_64
	cmpq	$96, %rdx
	jb	.LBB23_23
###SPA### trampoline_fmt_64
# %bb.21:
	pxor	%xmm0, %xmm0
	.p2align	4, 0x90
.LBB23_22:                              # =>This Inner Loop Header: Depth=1
###SPA## trampoline_fmt_64
	movdqu	%xmm0, 8(%rax)
	movq	$12, (%rax)
	movl	$0, 24(%rax)
	movb	$1, 28(%rax)
	movdqu	%xmm0, 40(%rax)
	movq	$12, 32(%rax)
	movl	$0, 56(%rax)
	movb	$1, 60(%rax)
	movdqu	%xmm0, 72(%rax)
	movq	$12, 64(%rax)
	movl	$0, 88(%rax)
	movb	$1, 92(%rax)
	movdqu	%xmm0, 104(%rax)
	movq	$12, 96(%rax)
	movl	$0, 120(%rax)
	movb	$1, 124(%rax)
	subq	$-128, %rax
	cmpq	%rcx, %rax
	jb	.LBB23_22
###SPA### trampoline_fmt_64
.LBB23_23:
###SPA## trampoline_fmt_64
	movq	48(%rsp), %rsi
	jmp	.LBB23_24
.LBB23_4:
###SPA## trampoline_fmt_64
	movq	$0, (%r14)
	movq	$0, 96(%rsp)
	movq	%fs:40, %rax
	cmpq	112(%rsp), %rax
	je	.LBB23_63
###SPA### trampoline_fmt_64
	jmp	.LBB23_61
.LBB23_12:
###SPA## trampoline_fmt_64
	movq	$0, (%r14)
	movq	80(%rsp), %rdi
	movq	$0, 80(%rsp)
	testq	%rdi, %rdi
	jne	.LBB23_52
###SPA### trampoline_fmt_64
	jmp	.LBB23_53
.LBB23_14:
###SPA## trampoline_fmt_64
	xorl	%esi, %esi
.LBB23_24:
###SPA## trampoline_fmt_64
	movq	%r15, (%rsp)            # 8-byte Spill
	movq	%r14, 8(%rsp)           # 8-byte Spill
	addq	%r12, %rsi
	movq	%rsi, 48(%rsp)
	movq	16(%rbp), %rax
	cmpq	$0, 144(%rax)
	je	.LBB23_34
###SPA### trampoline_fmt_64
# %bb.25:
	xorl	%r15d, %r15d
	movq	%rbp, 32(%rsp)          # 8-byte Spill
	.p2align	4, 0x90
.LBB23_26:                              # =>This Loop Header: Depth=1
                                        #     Child Loop BB23_31 Depth 2
###SPA## trampoline_fmt_64
	movq	40(%rsp), %r14
	movq	%r15, %rbp
	shlq	$5, %rbp
	leaq	(%r14,%rbp), %rdi
	movq	136(%rax), %rsi
	movq	(%rsi,%rbp), %r12
	movq	8(%rsi,%rbp), %rbx
	leaq	(%r14,%rbp), %r13
	addq	$8, %r13
	movq	8(%r14,%rbp), %rax
	leaq	(%rax,%rbx), %rcx
	cmpq	16(%r14,%rbp), %rcx
	jbe	.LBB23_29
###SPA### trampoline_fmt_64
# %bb.27:                               #   in Loop: Header=BB23_26 Depth=1
	movq	%rsi, 24(%rsp)          # 8-byte Spill
	movq	%rdi, 16(%rsp)          # 8-byte Spill
	movq	%rbx, %rsi
	callq	_ZN7mozilla6VectorIN2js4wasm11StructFieldELm0ENS1_17SystemAllocPolicyEE13growStorageByEm
	testb	%al, %al
	je	.LBB23_35
###SPA### trampoline_fmt_64
# %bb.28:                               #   in Loop: Header=BB23_26 Depth=1
	movq	(%r13), %rax
	movq	24(%rsp), %rsi          # 8-byte Reload
	movq	16(%rsp), %rdi          # 8-byte Reload
.LBB23_29:                              #   in Loop: Header=BB23_26 Depth=1
###SPA## trampoline_fmt_64
	leaq	(,%rbx,4), %rcx
	leaq	(%rcx,%rcx,2), %rcx
	cmpq	$12, %rcx
	jb	.LBB23_33
###SPA### trampoline_fmt_64
# %bb.30:                               #   in Loop: Header=BB23_26 Depth=1
	leaq	(%rbx,%rbx,2), %rcx
	leaq	(%r12,%rcx,4), %rcx
	leaq	(%rax,%rax,2), %rax
	shlq	$2, %rax
	addq	(%rdi), %rax
	.p2align	4, 0x90
.LBB23_31:                              #   Parent Loop BB23_26 Depth=1
                                        # =>  This Inner Loop Header: Depth=2
###SPA## trampoline_fmt_64
	movl	8(%r12), %edx
	movl	%edx, 8(%rax)
	movq	(%r12), %rdx
	movq	%rdx, (%rax)
	addq	$12, %r12
	addq	$12, %rax
	cmpq	%rcx, %r12
	jb	.LBB23_31
###SPA### trampoline_fmt_64
# %bb.32:                               #   in Loop: Header=BB23_26 Depth=1
	movq	(%r13), %rax
.LBB23_33:                              #   in Loop: Header=BB23_26 Depth=1
###SPA## trampoline_fmt_64
	addq	%rbx, %rax
	movq	%rax, (%r13)
	movl	24(%rsi,%rbp), %eax
	movl	%eax, 24(%r14,%rbp)
	movb	28(%rsi,%rbp), %al
	movb	%al, 28(%r14,%rbp)
	addl	$1, %r15d
	movq	32(%rsp), %rbp          # 8-byte Reload
	movq	16(%rbp), %rax
	cmpq	%r15, 144(%rax)
	ja	.LBB23_26
###SPA### trampoline_fmt_64
.LBB23_34:
###SPA## trampoline_fmt_64
	movq	32(%rax), %r12
	movq	_ZN2js11MallocArenaE(%rip), %rdi
	movl	$160, %esi
	callq	moz_arena_malloc@PLT
	testq	%rax, %rax
	je	.LBB23_35
###SPA### trampoline_fmt_64
# %bb.36:
	movq	%rax, %r15
	movq	(%rsp), %rax            # 8-byte Reload
	movq	%rax, 104(%rsp)
	leaq	104(%rsp), %rsi
	leaq	64(%rsp), %rcx
	leaq	40(%rsp), %r8
	movq	%r15, %rdi
	movq	%r12, %rdx
	callq	_ZN2js4wasm4CodeC1EN7mozilla9UniquePtrINS0_8CodeTierEN2JS12DeletePolicyIS4_EEEERKNS0_8MetadataEONS0_10JumpTablesEONS2_6VectorINS0_10StructTypeELm0ENS_17SystemAllocPolicyEEE
	movq	104(%rsp), %rbx
	movq	$0, 104(%rsp)
	testq	%rbx, %rbx
	movq	8(%rsp), %r14           # 8-byte Reload
	je	.LBB23_38
###SPA### trampoline_fmt_64
# %bb.37:
	movq	%rbx, %rdi
	callq	_ZN2js4wasm8CodeTierD2Ev
	movq	%rbx, %rdi
	callq	free@PLT
.LBB23_38:
###SPA## trampoline_fmt_64
	lock		addq	$1, (%r15)
	movq	160(%rbp), %rsi
	movq	%r15, %rdi
	callq	_ZN2js4wasm4Code10initializeERKNS0_8LinkDataE
	testb	%al, %al
	je	.LBB23_40
###SPA### trampoline_fmt_64
# %bb.39:
	movq	%r15, (%r14)
	jmp	.LBB23_42
.LBB23_40:
###SPA## trampoline_fmt_64
	movq	$0, (%r14)
	lock		subq	$1, (%r15)
	jne	.LBB23_42
###SPA### trampoline_fmt_64
# %bb.41:
	movq	%r15, %rdi
	callq	_ZN2js4wasm4CodeD2Ev
	movq	%r15, %rdi
	callq	free@PLT
.LBB23_42:
###SPA## trampoline_fmt_64
	xorl	%r15d, %r15d
	movq	40(%rsp), %rbx
	movq	48(%rsp), %rbp
	testq	%rbp, %rbp
	jle	.LBB23_49
###SPA### trampoline_fmt_64
.LBB23_44:
###SPA## trampoline_fmt_64
	shlq	$5, %rbp
	addq	%rbx, %rbp
	.p2align	4, 0x90
.LBB23_45:                              # =>This Inner Loop Header: Depth=1
###SPA## trampoline_fmt_64
	movq	(%rbx), %rdi
	cmpq	$12, %rdi
	je	.LBB23_47
###SPA### trampoline_fmt_64
# %bb.46:                               #   in Loop: Header=BB23_45 Depth=1
	callq	free@PLT
.LBB23_47:                              #   in Loop: Header=BB23_45 Depth=1
###SPA## trampoline_fmt_64
	addq	$32, %rbx
	cmpq	%rbp, %rbx
	jb	.LBB23_45
###SPA### trampoline_fmt_64
# %bb.48:
	movq	40(%rsp), %rbx
.LBB23_49:
###SPA## trampoline_fmt_64
	cmpq	$32, %rbx
	je	.LBB23_51
###SPA### trampoline_fmt_64
# %bb.50:
	movq	%rbx, %rdi
	callq	free@PLT
.LBB23_51:
###SPA## trampoline_fmt_64
	movq	80(%rsp), %rdi
	movq	$0, 80(%rsp)
	testq	%rdi, %rdi
	je	.LBB23_53
###SPA### trampoline_fmt_64
.LBB23_52:
###SPA## trampoline_fmt_64
	callq	free@PLT
.LBB23_53:
###SPA## trampoline_fmt_64
	movq	72(%rsp), %rdi
	movq	$0, 72(%rsp)
	testq	%rdi, %rdi
	je	.LBB23_55
###SPA### trampoline_fmt_64
# %bb.54:
	callq	free@PLT
.LBB23_55:
###SPA## trampoline_fmt_64
	testq	%r15, %r15
	je	.LBB23_58
###SPA### trampoline_fmt_64
# %bb.56:
	movq	%r15, %rdi
	callq	_ZN2js4wasm8CodeTierD2Ev
	movq	%r15, %rdi
	jmp	.LBB23_57
.LBB23_35:
###SPA## trampoline_fmt_64
	movq	8(%rsp), %r14           # 8-byte Reload
	movq	$0, (%r14)
	movq	(%rsp), %r15            # 8-byte Reload
	movq	40(%rsp), %rbx
	movq	48(%rsp), %rbp
	testq	%rbp, %rbp
	jg	.LBB23_44
###SPA### trampoline_fmt_64
	jmp	.LBB23_49
.LBB23_6:
###SPA## trampoline_fmt_64
	xorl	%ebx, %ebx
.LBB23_7:
###SPA## trampoline_fmt_64
	movq	$0, (%r14)
	testq	%rbx, %rbx
	je	.LBB23_58
###SPA### trampoline_fmt_64
# %bb.8:
	movq	%rbx, %rdi
	callq	_ZN2js4wasm12MetadataTierD2Ev
	movq	%rbx, %rdi
.LBB23_57:
###SPA## trampoline_fmt_64
	callq	free@PLT
.LBB23_58:
###SPA## trampoline_fmt_64
	movq	96(%rsp), %rbx
	movq	$0, 96(%rsp)
	testq	%rbx, %rbx
	je	.LBB23_60
###SPA### trampoline_fmt_64
# %bb.59:
	movq	%rbx, %rdi
	callq	_ZN2js4wasm11CodeSegmentD2Ev
	movq	%rbx, %rdi
	callq	free@PLT
.LBB23_60:
###SPA## trampoline_fmt_64
	movq	%fs:40, %rax
	cmpq	112(%rsp), %rax
	jne	.LBB23_61
###SPA### trampoline_fmt_64
.LBB23_63:
###SPA## trampoline_fmt_64
	movq	%r14, %rax
	addq	$120, %rsp
	.cfi_def_cfa_offset 56
	popq	%rbx
	.cfi_def_cfa_offset 48
	popq	%r12
	.cfi_def_cfa_offset 40
	popq	%r13
	.cfi_def_cfa_offset 32
	popq	%r14
	.cfi_def_cfa_offset 24
	popq	%r15
	.cfi_def_cfa_offset 16
	popq	%rbp
	.cfi_def_cfa_offset 8
	movq	%gs:(8), %r11
	movq	(%rsp, %r11, 1), %r11
	subq	%gs:(16), %r11
	addq	$8, %rsp
	jmpq	*%r11
.LBB23_62:
	.cfi_def_cfa_offset 176
###SPA## trampoline_fmt_64
	movq	$0, (%r14)
	movq	40(%rsp), %rbx
	movq	48(%rsp), %rbp
	testq	%rbp, %rbp
	jg	.LBB23_44
###SPA### trampoline_fmt_64
	jmp	.LBB23_49
.LBB23_61:
###SPA## trampoline_fmt_64
	callq	__stack_chk_fail@PLT
.Lfunc_end23:
	.size	_ZNK2js4wasm6Module19getDebugEnabledCodeEv, .Lfunc_end23-_ZNK2js4wasm6Module19getDebugEnabledCodeEv
	.cfi_endproc
                                        # -- End function
	.section	.text._ZNK2js4wasm6Module20makeStructTypeDescrsEP9JSContextN2JS13MutableHandleINS4_8GCVectorINS_7HeapPtrIPNS_15StructTypeDescrEEELm0ENS_17SystemAllocPolicyEEEEE,"ax",@progbits
	.hidden	_ZNK2js4wasm6Module20makeStructTypeDescrsEP9JSContextN2JS13MutableHandleINS4_8GCVectorINS_7HeapPtrIPNS_15StructTypeDescrEEELm0ENS_17SystemAllocPolicyEEEEE # -- Begin function _ZNK2js4wasm6Module20makeStructTypeDescrsEP9JSContextN2JS13MutableHandleINS4_8GCVectorINS_7HeapPtrIPNS_15StructTypeDescrEEELm0ENS_17SystemAllocPolicyEEEEE
	.globl	_ZNK2js4wasm6Module20makeStructTypeDescrsEP9JSContextN2JS13MutableHandleINS4_8GCVectorINS_7HeapPtrIPNS_15StructTypeDescrEEELm0ENS_17SystemAllocPolicyEEEEE
	.p2align	4, 0x90
	.type	_ZNK2js4wasm6Module20makeStructTypeDescrsEP9JSContextN2JS13MutableHandleINS4_8GCVectorINS_7HeapPtrIPNS_15StructTypeDescrEEELm0ENS_17SystemAllocPolicyEEEEE,@function
_ZNK2js4wasm6Module20makeStructTypeDescrsEP9JSContextN2JS13MutableHandleINS4_8GCVectorINS_7HeapPtrIPNS_15StructTypeDescrEEELm0ENS_17SystemAllocPolicyEEEEE: # @_ZNK2js4wasm6Module20makeStructTypeDescrsEP9JSContextN2JS13MutableHandleINS4_8GCVectorINS_7HeapPtrIPNS_15StructTypeDescrEEELm0ENS_17SystemAllocPolicyEEEEE
	.cfi_startproc
	movq	(%rsp), %r10
	addq	%gs:(16), %r10
	movq	%gs:(8), %r11
	movq	%r10, (%rsp, %r11, 1)
# %bb.0:
###SPA## trampoline_fmt_64
	movq	16(%rdi), %rax
	cmpq	$0, 144(%rax)
	jne	.LBB24_2
###SPA### trampoline_fmt_64
# %bb.1:
	movb	$1, %al
	movq	%gs:(8), %r11
	movq	(%rsp, %r11, 1), %r11
	subq	%gs:(16), %r11
	addq	$8, %rsp
	jmpq	*%r11
.LBB24_2:
###SPA## trampoline_fmt_64
	pushq	%rax
	.cfi_def_cfa_offset 16
	leaq	.L.str.19(%rip), %rax
	movq	gMozCrashReason@GOTPCREL(%rip), %rcx
	movq	%rax, (%rcx)
	movl	$1280, 0                # imm = 0x500
	callq	abort@PLT
.Lfunc_end24:
	.size	_ZNK2js4wasm6Module20makeStructTypeDescrsEP9JSContextN2JS13MutableHandleINS4_8GCVectorINS_7HeapPtrIPNS_15StructTypeDescrEEELm0ENS_17SystemAllocPolicyEEEEE, .Lfunc_end24-_ZNK2js4wasm6Module20makeStructTypeDescrsEP9JSContextN2JS13MutableHandleINS4_8GCVectorINS_7HeapPtrIPNS_15StructTypeDescrEEELm0ENS_17SystemAllocPolicyEEEEE
	.cfi_endproc
                                        # -- End function
	.section	.rodata.cst16,"aM",@progbits,16
	.p2align	4               # -- Begin function _ZNK2js4wasm6Module11instantiateEP9JSContextRNS0_12ImportValuesEN2JS6HandleIP8JSObjectEENS6_13MutableHandleIPNS_18WasmInstanceObjectEEE
.LCPI25_0:
	.quad	-1829587348619264       # 0xfff9800000000000
	.quad	-1829587348619264       # 0xfff9800000000000
	.section	.text._ZNK2js4wasm6Module11instantiateEP9JSContextRNS0_12ImportValuesEN2JS6HandleIP8JSObjectEENS6_13MutableHandleIPNS_18WasmInstanceObjectEEE,"ax",@progbits
	.hidden	_ZNK2js4wasm6Module11instantiateEP9JSContextRNS0_12ImportValuesEN2JS6HandleIP8JSObjectEENS6_13MutableHandleIPNS_18WasmInstanceObjectEEE
	.globl	_ZNK2js4wasm6Module11instantiateEP9JSContextRNS0_12ImportValuesEN2JS6HandleIP8JSObjectEENS6_13MutableHandleIPNS_18WasmInstanceObjectEEE
	.p2align	4, 0x90
	.type	_ZNK2js4wasm6Module11instantiateEP9JSContextRNS0_12ImportValuesEN2JS6HandleIP8JSObjectEENS6_13MutableHandleIPNS_18WasmInstanceObjectEEE,@function
_ZNK2js4wasm6Module11instantiateEP9JSContextRNS0_12ImportValuesEN2JS6HandleIP8JSObjectEENS6_13MutableHandleIPNS_18WasmInstanceObjectEEE: # @_ZNK2js4wasm6Module11instantiateEP9JSContextRNS0_12ImportValuesEN2JS6HandleIP8JSObjectEENS6_13MutableHandleIPNS_18WasmInstanceObjectEEE
	.cfi_startproc
	movq	(%rsp), %r10
	addq	%gs:(16), %r10
	movq	%gs:(8), %r11
	movq	%r10, (%rsp, %r11, 1)
# %bb.0:
###SPA## trampoline_fmt_64
	pushq	%rbp
	.cfi_def_cfa_offset 16
	pushq	%r15
	.cfi_def_cfa_offset 24
	pushq	%r14
	.cfi_def_cfa_offset 32
	pushq	%r13
	.cfi_def_cfa_offset 40
	pushq	%r12
	.cfi_def_cfa_offset 48
	pushq	%rbx
	.cfi_def_cfa_offset 56
	subq	$520, %rsp              # imm = 0x208
	.cfi_def_cfa_offset 576
	.cfi_offset %rbx, -56
	.cfi_offset %r12, -48
	.cfi_offset %r13, -40
	.cfi_offset %r14, -32
	.cfi_offset %r15, -24
	.cfi_offset %rbp, -16
	movq	%fs:40, %rax
	movq	%rax, 512(%rsp)
	movq	%rsi, 296(%rsp)
	cmpb	$1, 1565(%rsi)
	jne	.LBB25_165
###SPA### trampoline_fmt_64
# %bb.1:
	movq	%r8, %r15
	movq	%rcx, %r12
	movq	%rsi, %rbx
	movq	%rdi, %r13
	movq	%rdx, %rbp
	callq	_ZNK2js4wasm6Module20instantiateFunctionsEP9JSContextRKN2JS8GCVectorIP10JSFunctionLm0ENS_17SystemAllocPolicyEEE
	testb	%al, %al
	je	.LBB25_10
###SPA### trampoline_fmt_64
# %bb.2:
	leaq	288(%rsp), %r14
	movq	%rbp, 16(%rsp)          # 8-byte Spill
	movq	48(%rbp), %rax
	movq	%rax, 288(%rsp)
	leaq	24(%rbx), %rax
	movq	%rax, 272(%rsp)
	movq	24(%rbx), %rax
	movq	%rax, 280(%rsp)
	leaq	272(%rsp), %rax
	movq	%rax, 24(%rbx)
	movq	%r13, %rdi
	movq	%rbx, %rsi
	movq	%r14, %rdx
	callq	_ZNK2js4wasm6Module17instantiateMemoryEP9JSContextN2JS13MutableHandleIPNS_16WasmMemoryObjectEEE
	testb	%al, %al
	je	.LBB25_11
###SPA### trampoline_fmt_64
# %bb.3:
	movq	%r12, (%rsp)            # 8-byte Spill
	movq	%r15, 56(%rsp)          # 8-byte Spill
	leaq	_ZTVN2js15RootedTraceableIN2JS8GCVectorIPNS_15WasmTableObjectELm0ENS_17SystemAllocPolicyEEEEE+16(%rip), %r12
	movq	%r12, 240(%rsp)
	pxor	%xmm0, %xmm0
	movdqu	%xmm0, 256(%rsp)
	movq	$8, 248(%rsp)
	movq	296(%rsp), %rbp
	leaq	104(%rbp), %rax
	movq	%rax, 224(%rsp)
	movq	104(%rbp), %rax
	movq	%rax, 232(%rsp)
	leaq	224(%rsp), %rax
	movq	%rax, 104(%rbp)
	movdqu	%xmm0, 208(%rsp)
	movq	$8, 200(%rsp)
	movq	16(%r13), %rax
	movq	32(%rax), %rcx
	movq	136(%rcx), %rax
	testq	%rax, %rax
	je	.LBB25_13
###SPA### trampoline_fmt_64
# %bb.4:
	movq	%r13, 8(%rsp)           # 8-byte Spill
	movq	128(%rcx), %rbx
	leaq	24(%rbp), %r14
	shlq	$3, %rax
	leaq	(%rax,%rax,2), %r15
	xorl	%r12d, %r12d
	leaq	200(%rsp), %r13
	.p2align	4, 0x90
.LBB25_5:                               # =>This Inner Loop Header: Depth=1
###SPA## trampoline_fmt_64
	movl	%r12d, %r12d
	movq	16(%rsp), %rax          # 8-byte Reload
	cmpq	%r12, 32(%rax)
	jbe	.LBB25_8
###SPA### trampoline_fmt_64
# %bb.6:                                #   in Loop: Header=BB25_5 Depth=1
	movq	24(%rax), %rax
	movq	(%rax,%r12,8), %rax
	movq	%rax, 416(%rsp)
	movq	%r14, 400(%rsp)
	movq	24(%rbp), %rax
	movq	%rax, 408(%rsp)
	leaq	400(%rsp), %rax
	movq	%rax, 24(%rbp)
	movq	8(%rsp), %rdi           # 8-byte Reload
	movq	%rbp, %rsi
	movq	%rbx, %rdx
	leaq	416(%rsp), %rcx
	leaq	248(%rsp), %r8
	movq	%r13, %r9
	callq	_ZNK2js4wasm6Module24instantiateImportedTableEP9JSContextRKNS0_9TableDescEN2JS6HandleIPNS_15WasmTableObjectEEEPNS7_8GCVectorISA_Lm0ENS_17SystemAllocPolicyEEEPN7mozilla6VectorI6RefPtrINS0_5TableEELm0ESD_EE
	movq	400(%rsp), %rcx
	movq	408(%rsp), %rdx
	movq	%rdx, (%rcx)
	testb	%al, %al
	je	.LBB25_9
###SPA### trampoline_fmt_64
.LBB25_7:                               #   in Loop: Header=BB25_5 Depth=1
###SPA## trampoline_fmt_64
	addl	$1, %r12d
	addq	$24, %rbx
	addq	$-24, %r15
	jne	.LBB25_5
###SPA### trampoline_fmt_64
	jmp	.LBB25_12
	.p2align	4, 0x90
.LBB25_8:                               #   in Loop: Header=BB25_5 Depth=1
###SPA## trampoline_fmt_64
	movq	%rbp, %rsi
	movq	%rbx, %rdx
	leaq	248(%rsp), %rcx
	movq	%r13, %r8
	callq	_ZNK2js4wasm6Module21instantiateLocalTableEP9JSContextRKNS0_9TableDescEPN2JS8GCVectorIPNS_15WasmTableObjectELm0ENS_17SystemAllocPolicyEEEPN7mozilla6VectorI6RefPtrINS0_5TableEELm0ESB_EE
	testb	%al, %al
	jne	.LBB25_7
###SPA### trampoline_fmt_64
.LBB25_9:
###SPA## trampoline_fmt_64
	xorl	%r14d, %r14d
	leaq	_ZTVN2js15RootedTraceableIN2JS8GCVectorIPNS_15WasmTableObjectELm0ENS_17SystemAllocPolicyEEEEE+16(%rip), %r12
	movq	200(%rsp), %rbp
	movq	208(%rsp), %rax
	testq	%rax, %rax
	jg	.LBB25_138
###SPA### trampoline_fmt_64
	jmp	.LBB25_144
.LBB25_10:
###SPA## trampoline_fmt_64
	xorl	%r14d, %r14d
	movq	%fs:40, %rax
	cmpq	512(%rsp), %rax
	jne	.LBB25_166
###SPA### trampoline_fmt_64
.LBB25_149:
###SPA## trampoline_fmt_64
	movl	%r14d, %eax
	addq	$520, %rsp              # imm = 0x208
	.cfi_def_cfa_offset 56
	popq	%rbx
	.cfi_def_cfa_offset 48
	popq	%r12
	.cfi_def_cfa_offset 40
	popq	%r13
	.cfi_def_cfa_offset 32
	popq	%r14
	.cfi_def_cfa_offset 24
	popq	%r15
	.cfi_def_cfa_offset 16
	popq	%rbp
	.cfi_def_cfa_offset 8
	movq	%gs:(8), %r11
	movq	(%rsp, %r11, 1), %r11
	subq	%gs:(16), %r11
	addq	$8, %rsp
	jmpq	*%r11
.LBB25_11:
	.cfi_def_cfa_offset 576
###SPA## trampoline_fmt_64
	xorl	%r14d, %r14d
	jmp	.LBB25_148
.LBB25_12:
###SPA## trampoline_fmt_64
	movq	296(%rsp), %rbp
	leaq	_ZTVN2js15RootedTraceableIN2JS8GCVectorIPNS_15WasmTableObjectELm0ENS_17SystemAllocPolicyEEEEE+16(%rip), %r12
	movq	8(%rsp), %r13           # 8-byte Reload
	leaq	288(%rsp), %r14
.LBB25_13:
###SPA## trampoline_fmt_64
	movq	16(%rsp), %rax          # 8-byte Reload
	leaq	80(%rax), %rdx
	leaq	56(%rax), %rcx
	movq	%r13, %rdi
	movq	%rbp, %rsi
	movq	%rdx, 72(%rsp)          # 8-byte Spill
	movq	%rcx, 88(%rsp)          # 8-byte Spill
	callq	_ZNK2js4wasm6Module18instantiateGlobalsEP9JSContextRKN2JS8GCVectorINS0_3ValELm0ENS_17SystemAllocPolicyEEERNS5_IPNS_16WasmGlobalObjectELm0ES7_EE
	testb	%al, %al
	je	.LBB25_23
###SPA### trampoline_fmt_64
# %bb.14:
	movq	16(%r13), %rax
	movq	32(%rax), %rax
	movl	32(%rax), %esi
	leaq	192(%rsp), %rdi
	callq	_ZN2js4wasm13CreateTlsDataEj
	cmpq	$0, 192(%rsp)
	je	.LBB25_151
###SPA### trampoline_fmt_64
# %bb.15:
	movq	$0, 184(%rsp)
	movq	16(%r13), %r15
	movq	32(%r15), %rax
	cmpb	$0, 216(%rax)
	je	.LBB25_24
###SPA### trampoline_fmt_64
# %bb.16:
	leaq	400(%rsp), %rdi
	movq	%r13, %rsi
	callq	_ZNK2js4wasm6Module19getDebugEnabledCodeEv
	movq	400(%rsp), %r15
	testq	%r15, %r15
	je	.LBB25_155
###SPA### trampoline_fmt_64
# %bb.17:
	movq	296(%rsp), %rbp
	movq	_ZN2js11MallocArenaE(%rip), %r14
	movl	$72, %esi
	movq	%r14, %rdi
	callq	moz_arena_malloc@PLT
	movq	%rax, %rbx
	testq	%rax, %rax
	je	.LBB25_162
###SPA### trampoline_fmt_64
.LBB25_18:
###SPA## trampoline_fmt_64
	movq	%rbx, %rdi
	movq	%r15, %rsi
	movq	%r13, %rdx
	callq	_ZN2js4wasm10DebugStateC1ERKNS0_4CodeERKNS0_6ModuleE
	movq	%rbx, %rbp
.LBB25_19:
###SPA## trampoline_fmt_64
	movq	$0, 400(%rsp)
	movq	184(%rsp), %rsi
	movq	%rbp, 184(%rsp)
	testq	%rsi, %rsi
	leaq	288(%rsp), %r14
	je	.LBB25_26
###SPA### trampoline_fmt_64
# %bb.20:
	leaq	184(%rsp), %rdi
	callq	_ZN2JS12DeletePolicyIN2js4wasm10DebugStateEEclEPKS3_
	movq	400(%rsp), %rsi
	movq	$0, 400(%rsp)
	testq	%rsi, %rsi
	je	.LBB25_22
###SPA### trampoline_fmt_64
# %bb.21:
	leaq	400(%rsp), %rdi
	callq	_ZN2JS12DeletePolicyIN2js4wasm10DebugStateEEclEPKS3_
.LBB25_22:
###SPA## trampoline_fmt_64
	movq	184(%rsp), %rbp
	testq	%rbp, %rbp
	jne	.LBB25_29
###SPA### trampoline_fmt_64
	jmp	.LBB25_27
.LBB25_23:
###SPA## trampoline_fmt_64
	xorl	%r14d, %r14d
	movq	200(%rsp), %rbp
	movq	208(%rsp), %rax
	testq	%rax, %rax
	jg	.LBB25_138
###SPA### trampoline_fmt_64
	jmp	.LBB25_144
.LBB25_24:
###SPA## trampoline_fmt_64
	testq	%r15, %r15
	je	.LBB25_28
###SPA### trampoline_fmt_64
# %bb.25:
	lock		addq	$1, (%r15)
	jmp	.LBB25_29
.LBB25_26:
###SPA## trampoline_fmt_64
	movq	$0, 400(%rsp)
	testq	%rbp, %rbp
	jne	.LBB25_29
###SPA### trampoline_fmt_64
	jmp	.LBB25_27
.LBB25_28:
###SPA## trampoline_fmt_64
	xorl	%r15d, %r15d
.LBB25_29:
###SPA## trampoline_fmt_64
	leaq	136(%rsp), %rdi
	leaq	296(%rsp), %rsi
	callq	_ZN2JS6RootedINS_8GCVectorIN2js7HeapPtrIPNS2_15StructTypeDescrEEELm0ENS2_17SystemAllocPolicyEEEEC2IP9JSContextEERKT_NS9_14CtorDispatcherENS_6detail16FallbackOverloadE
	movq	16(%r13), %rax
	cmpq	$0, 144(%rax)
	jne	.LBB25_167
###SPA### trampoline_fmt_64
# %bb.30:
	movq	296(%rsp), %rdi
	movq	%r15, 128(%rsp)
	testq	%r15, %r15
	je	.LBB25_32
###SPA### trampoline_fmt_64
# %bb.31:
	lock		addq	$1, (%r15)
	movq	16(%r13), %rax
.LBB25_32:
###SPA## trampoline_fmt_64
	leaq	72(%r13), %rdx
	leaq	96(%r13), %rcx
	movq	192(%rsp), %rsi
	movq	$0, 192(%rsp)
	movq	%rsi, 120(%rsp)
	leaq	160(%rsp), %r10
	movq	32(%rax), %rax
	addq	$104, %rax
	movq	184(%rsp), %rsi
	movq	$0, 184(%rsp)
	movq	%rsi, 112(%rsp)
	leaq	112(%rsp), %rbx
	leaq	200(%rsp), %rbp
	leaq	128(%rsp), %rsi
	leaq	120(%rsp), %r8
	movq	%r14, %r9
	pushq	%rbx
	.cfi_adjust_cfa_offset 8
	pushq	8(%rsp)                 # 8-byte Folded Reload
	.cfi_adjust_cfa_offset 8
	pushq	104(%rsp)               # 8-byte Folded Reload
	.cfi_adjust_cfa_offset 8
	pushq	96(%rsp)                # 8-byte Folded Reload
	.cfi_adjust_cfa_offset 8
	pushq	%rax
	.cfi_adjust_cfa_offset 8
	pushq	56(%rsp)                # 8-byte Folded Reload
	.cfi_adjust_cfa_offset 8
	pushq	%r10
	.cfi_adjust_cfa_offset 8
	pushq	%rbp
	.cfi_adjust_cfa_offset 8
	callq	_ZN2js18WasmInstanceObject6createEP9JSContext6RefPtrIKNS_4wasm4CodeEERKN7mozilla6VectorINS4_18SerializableRefPtrIKNS4_11DataSegmentEEELm0ENS_17SystemAllocPolicyEEERKNS9_INSA_IKNS4_11ElemSegmentEEELm0ESE_EENS8_9UniquePtrINS4_7TlsDataENS4_14TlsDataDeleterEEEN2JS6HandleIPNS_16WasmMemoryObjectEEEONS9_IS3_INS4_5TableEELm0ESE_EEONSS_8GCVectorINS_7HeapPtrIPNS_15StructTypeDescrEEELm0ESE_EERKNS11_IP10JSFunctionLm0ESE_EERKNS9_INS4_10GlobalDescELm0ESE_EERKNS11_INS4_3ValELm0ESE_EERKNS11_IPNS_16WasmGlobalObjectELm0ESE_EENST_IP8JSObjectEENSO_INS4_10DebugStateENSS_12DeletePolicyIS1T_EEEE
	addq	$64, %rsp
	.cfi_adjust_cfa_offset -64
	movq	56(%rsp), %rbp          # 8-byte Reload
	movq	%rax, (%rbp)
	movq	112(%rsp), %rsi
	movq	$0, 112(%rsp)
	testq	%rsi, %rsi
	je	.LBB25_34
###SPA### trampoline_fmt_64
# %bb.33:
	leaq	112(%rsp), %rdi
	callq	_ZN2JS12DeletePolicyIN2js4wasm10DebugStateEEclEPKS3_
.LBB25_34:
###SPA## trampoline_fmt_64
	movq	120(%rsp), %rax
	movq	$0, 120(%rsp)
	testq	%rax, %rax
	je	.LBB25_36
###SPA### trampoline_fmt_64
# %bb.35:
	movq	72(%rax), %rdi
	callq	free@PLT
.LBB25_36:
###SPA## trampoline_fmt_64
	movq	128(%rsp), %rbx
	testq	%rbx, %rbx
	je	.LBB25_39
###SPA### trampoline_fmt_64
# %bb.37:
	lock		subq	$1, (%rbx)
	jne	.LBB25_39
###SPA### trampoline_fmt_64
# %bb.38:
	movq	%rbx, %rdi
	callq	_ZN2js4wasm4CodeD2Ev
	movq	%rbx, %rdi
	callq	free@PLT
.LBB25_39:
###SPA## trampoline_fmt_64
	movq	(%rbp), %rdi
	testq	%rdi, %rdi
	je	.LBB25_47
###SPA### trampoline_fmt_64
# %bb.40:
	movq	296(%rsp), %rax
	movq	%rax, (%rsp)            # 8-byte Spill
	callq	_ZNK2js18WasmInstanceObject8instanceEv
	movq	40(%rax), %rax
	movq	32(%rax), %rax
	movq	%rax, 64(%rsp)          # 8-byte Spill
	cmpl	$1, 16(%rax)
	jne	.LBB25_43
###SPA### trampoline_fmt_64
# %bb.41:
	cmpq	$1, 56(%r13)
	jne	.LBB25_43
###SPA### trampoline_fmt_64
# %bb.42:
	movq	48(%r13), %rax
	movq	(%rax), %rax
	cmpb	$0, (%rax)
	je	.LBB25_152
###SPA### trampoline_fmt_64
.LBB25_43:
###SPA## trampoline_fmt_64
	movq	$0, 368(%rsp)
	movq	(%rsp), %rcx            # 8-byte Reload
	leaq	24(%rcx), %rax
	movq	%rax, 48(%rsp)          # 8-byte Spill
	movq	%rax, 352(%rsp)
	movq	24(%rcx), %rax
	movq	%rax, 360(%rsp)
	leaq	352(%rsp), %rax
	movq	%rax, 24(%rcx)
	movq	64(%rsp), %rax          # 8-byte Reload
	cmpl	$1, 16(%rax)
	movq	_ZN2js16FunctionClassPtrE(%rip), %rax
	movq	%r13, 8(%rsp)           # 8-byte Spill
	movq	%r15, 80(%rsp)          # 8-byte Spill
	leaq	_ZN2js11PlainObject6class_E(%rip), %rcx
	jne	.LBB25_48
###SPA### trampoline_fmt_64
# %bb.44:
	cmpq	%rcx, %rax
	je	.LBB25_51
###SPA### trampoline_fmt_64
# %bb.45:
	movl	_ZN2js11PlainObject6class_E+8(%rip), %eax
	movzbl	%ah, %ecx
	andl	$1, %eax
	addq	%rcx, %rax
	movb	$16, %cl
	cmpl	$16, %eax
	ja	.LBB25_52
###SPA### trampoline_fmt_64
# %bb.46:
	leaq	_ZN2js2gc16slotsToThingKindE(%rip), %rcx
	movb	(%rax,%rcx), %cl
	jmp	.LBB25_52
.LBB25_48:
###SPA## trampoline_fmt_64
	cmpq	%rcx, %rax
	je	.LBB25_53
###SPA### trampoline_fmt_64
# %bb.49:
	movl	_ZN2js11PlainObject6class_E+8(%rip), %eax
	movzbl	%ah, %ecx
	andl	$1, %eax
	addq	%rcx, %rax
	movb	$16, %cl
	cmpl	$16, %eax
	ja	.LBB25_54
###SPA### trampoline_fmt_64
# %bb.50:
	leaq	_ZN2js2gc16slotsToThingKindE(%rip), %rcx
	movb	(%rax,%rcx), %cl
	jmp	.LBB25_54
.LBB25_51:
###SPA## trampoline_fmt_64
	xorl	%ecx, %ecx
.LBB25_52:
###SPA## trampoline_fmt_64
	movzbl	%cl, %ecx
	leaq	_ZN2js11PlainObject6class_E(%rip), %rsi
	leaq	_ZZN2JS6HandleIP8JSObjectEC1EDnE14ConstNullValue(%rip), %rdx
	xorl	%r8d, %r8d
	movq	(%rsp), %rdi            # 8-byte Reload
	callq	_ZN2js23NewObjectWithClassProtoEP9JSContextPK7JSClassN2JS6HandleIP8JSObjectEENS_2gc9AllocKindENS_13NewObjectKindE
	movl	$1, 44(%rsp)            # 4-byte Folded Spill
	movq	%rax, 368(%rsp)
	testq	%rax, %rax
	jne	.LBB25_55
###SPA### trampoline_fmt_64
	jmp	.LBB25_129
.LBB25_53:
###SPA## trampoline_fmt_64
	xorl	%ecx, %ecx
.LBB25_54:
###SPA## trampoline_fmt_64
	movzbl	%cl, %ecx
	leaq	_ZN2js11PlainObject6class_E(%rip), %rsi
	leaq	_ZZN2JS6HandleIP8JSObjectEC1EDnE14ConstNullValue(%rip), %rdx
	xorl	%r8d, %r8d
	xorl	%r9d, %r9d
	movq	(%rsp), %rdi            # 8-byte Reload
	callq	_ZN2js29NewObjectWithGivenTaggedProtoEP9JSContextPK7JSClassN2JS6HandleINS_11TaggedProtoEEENS_2gc9AllocKindENS_13NewObjectKindEj
	movl	$7, 44(%rsp)            # 4-byte Folded Spill
	movq	%rax, 368(%rsp)
	testq	%rax, %rax
	je	.LBB25_129
###SPA### trampoline_fmt_64
.LBB25_55:
###SPA## trampoline_fmt_64
	movq	8(%rsp), %rax           # 8-byte Reload
	movq	56(%rax), %rax
	testq	%rax, %rax
	je	.LBB25_114
###SPA### trampoline_fmt_64
# %bb.56:
	movq	%rax, %rcx
	movq	8(%rsp), %rax           # 8-byte Reload
	movq	48(%rax), %r12
	shlq	$4, %rcx
	addq	%r12, %rcx
	movq	%rcx, 104(%rsp)         # 8-byte Spill
	movq	(%rsp), %rax            # 8-byte Reload
	leaq	88(%rax), %r14
	leaq	96(%rax), %r13
	leaq	104(%rax), %rax
	movq	%rax, 96(%rsp)          # 8-byte Spill
.LBB25_57:                              # =>This Inner Loop Header: Depth=1
###SPA## trampoline_fmt_64
	movq	(%r12), %rbx
	movq	%rbx, %rdi
	callq	strlen@PLT
	movq	(%rsp), %rdi            # 8-byte Reload
	movq	%rbx, %rsi
	movq	%rax, %rdx
	callq	_ZN2js16AtomizeUTF8CharsEP9JSContextPKcm
	testq	%rax, %rax
	je	.LBB25_129
###SPA### trampoline_fmt_64
# %bb.58:                               #   in Loop: Header=BB25_57 Depth=1
	movq	%rax, %r15
	movq	(%rax), %rax
	testl	$1024, %eax             # imm = 0x400
	jne	.LBB25_65
###SPA### trampoline_fmt_64
# %bb.59:                               #   in Loop: Header=BB25_57 Depth=1
	movq	%rax, %rsi
	shrq	$32, %rsi
	leaq	-1(%rsi), %rcx
	cmpq	$9, %rcx
	ja	.LBB25_68
###SPA### trampoline_fmt_64
# %bb.60:                               #   in Loop: Header=BB25_57 Depth=1
	movq	%r15, %rdi
	addq	$8, %rdi
	testl	$512, %eax              # imm = 0x200
	jne	.LBB25_85
###SPA### trampoline_fmt_64
# %bb.61:                               #   in Loop: Header=BB25_57 Depth=1
	testb	$64, %al
	jne	.LBB25_63
###SPA### trampoline_fmt_64
# %bb.62:                               #   in Loop: Header=BB25_57 Depth=1
	movq	(%rdi), %rdi
.LBB25_63:                              #   in Loop: Header=BB25_57 Depth=1
###SPA## trampoline_fmt_64
	movzwl	(%rdi), %eax
	addl	$-48, %eax
	movzwl	%ax, %eax
	cmpl	$9, %eax
	ja	.LBB25_68
###SPA### trampoline_fmt_64
# %bb.64:                               #   in Loop: Header=BB25_57 Depth=1
	leaq	400(%rsp), %rdx
	callq	_ZN14JSLinearString11isIndexSlowIDsEEbPKT_mPj
	testb	%al, %al
	jne	.LBB25_66
###SPA### trampoline_fmt_64
	jmp	.LBB25_68
.LBB25_65:                              #   in Loop: Header=BB25_57 Depth=1
###SPA## trampoline_fmt_64
	shrl	$16, %eax
	movl	%eax, 400(%rsp)
	movb	$1, %al
	testb	%al, %al
	je	.LBB25_68
###SPA### trampoline_fmt_64
.LBB25_66:                              #   in Loop: Header=BB25_57 Depth=1
###SPA## trampoline_fmt_64
	movl	400(%rsp), %eax
	testl	%eax, %eax
	js	.LBB25_68
###SPA### trampoline_fmt_64
# %bb.67:                               #   in Loop: Header=BB25_57 Depth=1
	leal	(%rax,%rax), %r15d
	addl	$1, %r15d
.LBB25_68:                              #   in Loop: Header=BB25_57 Depth=1
###SPA## trampoline_fmt_64
	movq	%r15, 344(%rsp)
	movq	%r14, %rcx
	movq	%r14, 328(%rsp)
	movq	(%r14), %rax
	movq	%rax, 336(%rsp)
	leaq	328(%rsp), %rax
	movq	%rax, (%r14)
	movabsq	$-1829587348619264, %rax # imm = 0xFFF9800000000000
	movq	%rax, 320(%rsp)
	movq	%r13, 304(%rsp)
	movq	(%r13), %rax
	movq	%rax, 312(%rsp)
	leaq	304(%rsp), %rax
	movq	%rax, (%r13)
	movl	8(%r12), %eax
	cmpq	$3, %rax
	ja	.LBB25_103
###SPA### trampoline_fmt_64
# %bb.69:                               #   in Loop: Header=BB25_57 Depth=1
	leaq	.LJTI25_0(%rip), %rcx
	movslq	(%rcx,%rax,4), %rax
	addq	%rcx, %rax
	jmpq	*%rax
.LBB25_70:                              #   in Loop: Header=BB25_57 Depth=1
###SPA## trampoline_fmt_64
	movq	$0, 416(%rsp)
	movq	48(%rsp), %rcx          # 8-byte Reload
	movq	%rcx, 400(%rsp)
	movq	(%rcx), %rax
	movq	%rax, 408(%rsp)
	leaq	400(%rsp), %rax
	movq	%rax, (%rcx)
	movq	%r12, %rdi
	callq	_ZNK2js4wasm6Export9funcIndexEv
	movl	%eax, %ebx
	movq	16(%rsp), %rax          # 8-byte Reload
	cmpq	%rbx, 8(%rax)
	jbe	.LBB25_82
###SPA### trampoline_fmt_64
# %bb.71:                               #   in Loop: Header=BB25_57 Depth=1
	movq	(%rax), %rax
	movq	(%rax,%rbx,8), %rdi
	callq	_ZN2js4wasm22IsWasmExportedFunctionEP10JSFunction
	movq	16(%rsp), %rcx          # 8-byte Reload
	testb	%al, %al
	je	.LBB25_82
###SPA### trampoline_fmt_64
# %bb.72:                               #   in Loop: Header=BB25_57 Depth=1
	movq	(%rcx), %rax
	movq	(%rax,%rbx,8), %rax
	movq	%rax, 416(%rsp)
	jmp	.LBB25_84
.LBB25_73:                              #   in Loop: Header=BB25_57 Depth=1
###SPA## trampoline_fmt_64
	movq	288(%rsp), %rax
	jmp	.LBB25_81
.LBB25_74:                              #   in Loop: Header=BB25_57 Depth=1
###SPA## trampoline_fmt_64
	movq	%r12, %rdi
	callq	_ZNK2js4wasm6Export11globalIndexEv
	movl	%eax, %eax
	movq	64(%rsp), %rcx          # 8-byte Reload
	movq	104(%rcx), %rbx
	leaq	(%rax,%rax,2), %rbp
	shlq	$4, %rbp
	movq	%r12, %rdi
	callq	_ZNK2js4wasm6Export11globalIndexEv
	movq	88(%rsp), %rcx          # 8-byte Reload
	movq	(%rcx), %rcx
	movl	%eax, %eax
	movq	(%rcx,%rax,8), %rcx
	movq	%rcx, 392(%rsp)
	movq	48(%rsp), %rdx          # 8-byte Reload
	movq	%rdx, 376(%rsp)
	movq	(%rdx), %rax
	movq	%rax, 384(%rsp)
	leaq	376(%rsp), %rsi
	movq	%rsi, (%rdx)
	movabsq	$-562949953421312, %rdx # imm = 0xFFFE000000000000
	orq	%rdx, %rcx
	movq	%rcx, 320(%rsp)
	movl	40(%rbx,%rbp), %ecx
	cmpl	$1, %ecx
	je	.LBB25_92
###SPA### trampoline_fmt_64
# %bb.75:                               #   in Loop: Header=BB25_57 Depth=1
	cmpb	$0, 36(%rbx,%rbp)
	je	.LBB25_91
###SPA### trampoline_fmt_64
# %bb.76:                               #   in Loop: Header=BB25_57 Depth=1
	cmpb	$0, 37(%rbx,%rbp)
	je	.LBB25_91
###SPA### trampoline_fmt_64
# %bb.77:                               #   in Loop: Header=BB25_57 Depth=1
	testl	%ecx, %ecx
	je	.LBB25_79
###SPA### trampoline_fmt_64
# %bb.78:                               #   in Loop: Header=BB25_57 Depth=1
	cmpb	$0, 38(%rbx,%rbp)
	je	.LBB25_92
###SPA### trampoline_fmt_64
.LBB25_79:                              #   in Loop: Header=BB25_57 Depth=1
###SPA## trampoline_fmt_64
	movq	48(%rsp), %rcx          # 8-byte Reload
	movq	%rax, (%rcx)
	jmp	.LBB25_102
.LBB25_80:                              #   in Loop: Header=BB25_57 Depth=1
###SPA## trampoline_fmt_64
	movq	%r12, %rdi
	callq	_ZNK2js4wasm6Export10tableIndexEv
	movl	%eax, %eax
	movq	248(%rsp), %rcx
	movq	(%rcx,%rax,8), %rax
.LBB25_81:                              #   in Loop: Header=BB25_57 Depth=1
###SPA## trampoline_fmt_64
	movabsq	$-562949953421312, %rcx # imm = 0xFFFE000000000000
	orq	%rcx, %rax
	movq	%rax, 320(%rsp)
	jmp	.LBB25_103
.LBB25_82:                              #   in Loop: Header=BB25_57 Depth=1
###SPA## trampoline_fmt_64
	movq	(%rsp), %rdi            # 8-byte Reload
	movq	%rbp, %rsi
	movl	%ebx, %edx
	leaq	416(%rsp), %rcx
	callq	_ZN2js18WasmInstanceObject19getExportedFunctionEP9JSContextN2JS6HandleIPS0_EEjNS3_13MutableHandleIP10JSFunctionEE
	testb	%al, %al
	je	.LBB25_89
###SPA### trampoline_fmt_64
# %bb.83:                               #   in Loop: Header=BB25_57 Depth=1
	movq	416(%rsp), %rax
.LBB25_84:                              #   in Loop: Header=BB25_57 Depth=1
###SPA## trampoline_fmt_64
	movabsq	$-562949953421312, %rcx # imm = 0xFFFE000000000000
	orq	%rcx, %rax
	movq	%rax, 320(%rsp)
	movq	400(%rsp), %rax
	movq	408(%rsp), %rcx
	movq	%rcx, (%rax)
	jmp	.LBB25_103
.LBB25_85:                              #   in Loop: Header=BB25_57 Depth=1
###SPA## trampoline_fmt_64
	testb	$64, %al
	jne	.LBB25_87
###SPA### trampoline_fmt_64
# %bb.86:                               #   in Loop: Header=BB25_57 Depth=1
	movq	(%rdi), %rdi
.LBB25_87:                              #   in Loop: Header=BB25_57 Depth=1
###SPA## trampoline_fmt_64
	movzbl	(%rdi), %eax
	addb	$-48, %al
	cmpb	$9, %al
	ja	.LBB25_68
###SPA### trampoline_fmt_64
# %bb.88:                               #   in Loop: Header=BB25_57 Depth=1
	leaq	400(%rsp), %rdx
	callq	_ZN14JSLinearString11isIndexSlowIhEEbPKT_mPj
	testb	%al, %al
	jne	.LBB25_66
###SPA### trampoline_fmt_64
	jmp	.LBB25_68
.LBB25_89:                              #   in Loop: Header=BB25_57 Depth=1
###SPA## trampoline_fmt_64
	movq	400(%rsp), %rax
	movq	408(%rsp), %rcx
.LBB25_90:                              #   in Loop: Header=BB25_57 Depth=1
###SPA## trampoline_fmt_64
	movq	%rcx, (%rax)
	movl	$1, %eax
	jmp	.LBB25_104
.LBB25_91:                              #   in Loop: Header=BB25_57 Depth=1
###SPA## trampoline_fmt_64
	testl	%ecx, %ecx
	je	.LBB25_79
###SPA### trampoline_fmt_64
.LBB25_92:                              #   in Loop: Header=BB25_57 Depth=1
###SPA## trampoline_fmt_64
	leaq	(%rbx,%rbp), %rax
	leaq	(%rbx,%rbp), %rcx
	addq	$40, %rcx
	leaq	_ZTVN2js15RootedTraceableINS_4wasm3ValEEE+16(%rip), %rdx
	movq	%rdx, 416(%rsp)
	movl	$255, 424(%rsp)
	movl	$0, 432(%rsp)
	movq	96(%rsp), %rsi          # 8-byte Reload
	movq	%rsi, 400(%rsp)
	movq	(%rsi), %rdx
	movq	%rdx, 408(%rsp)
	leaq	400(%rsp), %rdx
	movq	%rdx, (%rsi)
	movl	(%rcx), %ecx
	cmpl	$1, %ecx
	je	.LBB25_99
###SPA### trampoline_fmt_64
# %bb.93:                               #   in Loop: Header=BB25_57 Depth=1
	cmpl	$2, %ecx
	je	.LBB25_95
###SPA### trampoline_fmt_64
# %bb.94:                               #   in Loop: Header=BB25_57 Depth=1
	testl	%ecx, %ecx
	leaq	424(%rsp), %rdx
	jne	.LBB25_101
###SPA### trampoline_fmt_64
	jmp	.LBB25_168
.LBB25_95:                              #   in Loop: Header=BB25_57 Depth=1
###SPA## trampoline_fmt_64
	movl	(%rax), %eax
	cmpl	$2, %eax
	je	.LBB25_107
###SPA### trampoline_fmt_64
# %bb.96:                               #   in Loop: Header=BB25_57 Depth=1
	cmpl	$1, %eax
	je	.LBB25_106
###SPA### trampoline_fmt_64
# %bb.97:                               #   in Loop: Header=BB25_57 Depth=1
	testl	%eax, %eax
	leaq	424(%rsp), %rdx
	jne	.LBB25_101
###SPA### trampoline_fmt_64
# %bb.98:                               #   in Loop: Header=BB25_57 Depth=1
	movq	24(%rbx,%rbp), %rax
	movq	%rax, 480(%rsp)
	movups	8(%rbx,%rbp), %xmm0
	movaps	%xmm0, 464(%rsp)
	leaq	488(%rsp), %rdi
	leaq	464(%rsp), %rsi
	callq	_ZN2js4wasm3ValC1ERKNS0_6LitValE
	movq	504(%rsp), %rax
	leaq	424(%rsp), %rcx
	movq	%rax, 16(%rcx)
	leaq	424(%rsp), %rdx
	movdqu	488(%rsp), %xmm0
	movdqu	%xmm0, (%rdx)
	jmp	.LBB25_101
.LBB25_99:                              #   in Loop: Header=BB25_57 Depth=1
###SPA## trampoline_fmt_64
	movq	16(%rax), %rcx
	movq	%rcx, 480(%rsp)
	movups	(%rax), %xmm0
	movaps	%xmm0, 464(%rsp)
	leaq	488(%rsp), %rdi
	leaq	464(%rsp), %rsi
	callq	_ZN2js4wasm3ValC1ERKNS0_6LitValE
	movq	504(%rsp), %rax
	leaq	424(%rsp), %rcx
	movq	%rax, 16(%rcx)
	movq	%rcx, %rdx
	movdqu	488(%rsp), %xmm0
.LBB25_100:                             #   in Loop: Header=BB25_57 Depth=1
###SPA## trampoline_fmt_64
	movdqu	%xmm0, (%rcx)
.LBB25_101:                             #   in Loop: Header=BB25_57 Depth=1
###SPA## trampoline_fmt_64
	movq	392(%rsp), %rdi
	movq	(%rsp), %rsi            # 8-byte Reload
	callq	_ZN2js16WasmGlobalObject6setValEP9JSContextN2JS6HandleINS_4wasm3ValEEE
	movq	400(%rsp), %rax
	movq	408(%rsp), %rcx
	movq	%rcx, (%rax)
	movq	376(%rsp), %rax
	movq	384(%rsp), %rcx
	movq	%rcx, (%rax)
.LBB25_102:                             #   in Loop: Header=BB25_57 Depth=1
###SPA## trampoline_fmt_64
	movq	56(%rsp), %rbp          # 8-byte Reload
.LBB25_103:                             #   in Loop: Header=BB25_57 Depth=1
###SPA## trampoline_fmt_64
	movq	(%rsp), %rdi            # 8-byte Reload
	leaq	368(%rsp), %rsi
	leaq	344(%rsp), %rdx
	leaq	320(%rsp), %rcx
	movl	44(%rsp), %r8d          # 4-byte Reload
	callq	_Z21JS_DefinePropertyByIdP9JSContextN2JS6HandleIP8JSObjectEENS2_INS1_11PropertyKeyEEENS2_INS1_5ValueEEEj
	xorb	$1, %al
	movzbl	%al, %eax
.LBB25_104:                             #   in Loop: Header=BB25_57 Depth=1
###SPA## trampoline_fmt_64
	movq	304(%rsp), %rcx
	movq	312(%rsp), %rdx
	movq	%rdx, (%rcx)
	movq	328(%rsp), %rcx
	movq	336(%rsp), %rdx
	movq	%rdx, (%rcx)
	testl	%eax, %eax
	jne	.LBB25_129
###SPA### trampoline_fmt_64
# %bb.105:                              #   in Loop: Header=BB25_57 Depth=1
	addq	$16, %r12
	cmpq	104(%rsp), %r12         # 8-byte Folded Reload
	jne	.LBB25_57
###SPA### trampoline_fmt_64
	jmp	.LBB25_114
.LBB25_106:                             #   in Loop: Header=BB25_57 Depth=1
###SPA## trampoline_fmt_64
	movl	8(%rbx,%rbp), %eax
	movq	72(%rsp), %rcx          # 8-byte Reload
	movq	(%rcx), %rcx
	leaq	(%rax,%rax,2), %rax
	movdqu	(%rcx,%rax,8), %xmm0
	movq	16(%rcx,%rax,8), %rax
	leaq	424(%rsp), %rcx
	movq	%rax, 16(%rcx)
	movq	%rcx, %rdx
	jmp	.LBB25_100
.LBB25_107:                             #   in Loop: Header=BB25_57 Depth=1
###SPA## trampoline_fmt_64
	movq	$0, 504(%rsp)
	movq	48(%rsp), %rax          # 8-byte Reload
	movq	%rax, 488(%rsp)
	leaq	376(%rsp), %rcx
	movq	%rcx, 496(%rsp)
	leaq	488(%rsp), %rcx
	movq	%rcx, (%rax)
	movl	8(%rbx,%rbp), %ebx
	movq	16(%rsp), %rax          # 8-byte Reload
	cmpq	%rbx, 8(%rax)
	jbe	.LBB25_110
###SPA### trampoline_fmt_64
# %bb.108:                              #   in Loop: Header=BB25_57 Depth=1
	movq	(%rax), %rax
	movq	(%rax,%rbx,8), %rdi
	callq	_ZN2js4wasm22IsWasmExportedFunctionEP10JSFunction
	movq	16(%rsp), %rcx          # 8-byte Reload
	testb	%al, %al
	je	.LBB25_110
###SPA### trampoline_fmt_64
# %bb.109:                              #   in Loop: Header=BB25_57 Depth=1
	movq	(%rcx), %rax
	movq	(%rax,%rbx,8), %rax
	movq	%rax, 504(%rsp)
	jmp	.LBB25_112
.LBB25_110:                             #   in Loop: Header=BB25_57 Depth=1
###SPA## trampoline_fmt_64
	movq	(%rsp), %rdi            # 8-byte Reload
	movq	56(%rsp), %rbp          # 8-byte Reload
	movq	%rbp, %rsi
	movl	%ebx, %edx
	leaq	504(%rsp), %rcx
	callq	_ZN2js18WasmInstanceObject19getExportedFunctionEP9JSContextN2JS6HandleIPS0_EEjNS3_13MutableHandleIP10JSFunctionEE
	testb	%al, %al
	je	.LBB25_113
###SPA### trampoline_fmt_64
# %bb.111:                              #   in Loop: Header=BB25_57 Depth=1
	movq	504(%rsp), %rax
.LBB25_112:                             #   in Loop: Header=BB25_57 Depth=1
###SPA## trampoline_fmt_64
	movl	$1073741680, 424(%rsp)  # imm = 0x3FFFFF70
	movq	%rax, 432(%rsp)
	movq	488(%rsp), %rax
	movq	496(%rsp), %rcx
	movq	%rcx, (%rax)
	leaq	424(%rsp), %rdx
	jmp	.LBB25_101
.LBB25_113:                             #   in Loop: Header=BB25_57 Depth=1
###SPA## trampoline_fmt_64
	movq	488(%rsp), %rax
	movq	496(%rsp), %rcx
	movq	%rcx, (%rax)
	movq	400(%rsp), %rax
	movq	408(%rsp), %rcx
	movq	%rcx, (%rax)
	movq	376(%rsp), %rax
	movq	384(%rsp), %rcx
	jmp	.LBB25_90
.LBB25_114:
###SPA## trampoline_fmt_64
	movq	64(%rsp), %rax          # 8-byte Reload
	cmpl	$1, 16(%rax)
	je	.LBB25_116
###SPA### trampoline_fmt_64
# %bb.115:
	movq	(%rsp), %rdi            # 8-byte Reload
	leaq	368(%rsp), %rsi
	callq	_ZN2js17PreventExtensionsEP9JSContextN2JS6HandleIP8JSObjectEE
	testb	%al, %al
	je	.LBB25_129
###SPA### trampoline_fmt_64
.LBB25_116:
###SPA## trampoline_fmt_64
	movq	(%rbp), %rdi
	movq	368(%rsp), %rsi
	callq	_ZN2js18WasmInstanceObject14initExportsObjER8JSObject
	movq	352(%rsp), %rax
	movq	360(%rsp), %rcx
	movq	%rcx, (%rax)
	leaq	_ZTVN2js15RootedTraceableIN2JS8GCVectorIPNS_15WasmTableObjectELm0ENS_17SystemAllocPolicyEEEEE+16(%rip), %r12
	movq	8(%rsp), %r13           # 8-byte Reload
	movq	80(%rsp), %r15          # 8-byte Reload
	leaq	288(%rsp), %r14
.LBB25_117:
###SPA## trampoline_fmt_64
	movq	296(%rsp), %rsi
	movl	$664, %edi              # imm = 0x298
	addq	152(%rsi), %rdi
	movq	%rbp, %rdx
	callq	_ZN2js4wasm5Realm16registerInstanceEP9JSContextN2JS6HandleIPNS_18WasmInstanceObjectEEE
	testb	%al, %al
	je	.LBB25_47
###SPA### trampoline_fmt_64
# %bb.118:
	movq	296(%rsp), %rsi
	movq	%r13, %rdi
	movq	%rbp, %rdx
	movq	%r14, %rcx
	movq	72(%rsp), %r8           # 8-byte Reload
	callq	_ZNK2js4wasm6Module12initSegmentsEP9JSContextN2JS6HandleIPNS_18WasmInstanceObjectEEENS5_IPNS_16WasmMemoryObjectEEERKNS4_8GCVectorINS0_3ValELm0ENS_17SystemAllocPolicyEEE
	testb	%al, %al
	je	.LBB25_47
###SPA### trampoline_fmt_64
# %bb.119:
	movq	16(%r13), %rax
	movq	32(%rax), %rax
	cmpb	$0, 60(%rax)
	je	.LBB25_122
###SPA### trampoline_fmt_64
# %bb.120:
	movq	296(%rsp), %rax
	leaq	416(%rsp), %rcx
	leaq	_ZTVN2js15RootedTraceableIN2JS10ValueArrayILm2EEEEE+16(%rip), %rdx
	movq	%rdx, 432(%rsp)
	movdqa	.LCPI25_0(%rip), %xmm0  # xmm0 = [18444914486360932352,18444914486360932352]
	movdqu	%xmm0, 440(%rsp)
	leaq	104(%rax), %rdx
	movq	%rdx, 416(%rsp)
	movq	104(%rax), %rdx
	movq	%rdx, 424(%rsp)
	movq	%rcx, 104(%rax)
	leaq	456(%rsp), %rax
	movq	%rax, 400(%rsp)
	movb	$0, 412(%rsp)
	movl	$0, 408(%rsp)
	movq	(%rbp), %rdi
	callq	_ZNK2js18WasmInstanceObject8instanceEv
	movq	296(%rsp), %rsi
	movq	16(%r13), %rcx
	movq	32(%rcx), %rcx
	movl	56(%rcx), %edx
	movq	400(%rsp), %rcx
	movq	408(%rsp), %r8
	movq	%rax, %rdi
	callq	_ZN2js4wasm8Instance10callExportEP9JSContextjN2JS8CallArgsE
	movq	416(%rsp), %rcx
	movq	424(%rsp), %rdx
	movq	%rdx, (%rcx)
	testb	%al, %al
	je	.LBB25_47
###SPA### trampoline_fmt_64
# %bb.121:
	movq	16(%r13), %rax
	movq	32(%rax), %rax
.LBB25_122:
###SPA## trampoline_fmt_64
	xorl	%edx, %edx
	cmpl	$1, 16(%rax)
	setne	%dl
	movq	296(%rsp), %rax
	movq	192(%rax), %rdi
	movq	(%rbp), %rsi
	callq	_ZN9JSRuntime13setUseCounterEP8JSObject12JSUseCounter
	movq	296(%rsp), %rax
	movzwl	216(%rax), %eax
	movb	$1, %r14b
	testl	$2048, %eax             # imm = 0x800
	je	.LBB25_130
###SPA### trampoline_fmt_64
# %bb.123:
	movl	188(%r13), %eax
	testl	%eax, %eax
	je	.LBB25_130
###SPA### trampoline_fmt_64
# %bb.124:
	movl	$1000000, %eax          # imm = 0xF4240
	movq	%rax, %xmm0
	pslldq	$8, %xmm0               # xmm0 = zero,zero,zero,zero,zero,zero,zero,zero,xmm0[0,1,2,3,4,5,6,7]
	movdqa	%xmm0, 16(%rsp)         # 16-byte Spill
	leaq	400(%rsp), %rbp
.LBB25_125:                             # =>This Loop Header: Depth=1
                                        #     Child Loop BB25_126 Depth 2
###SPA## trampoline_fmt_64
	movdqa	16(%rsp), %xmm0         # 16-byte Reload
	movdqa	%xmm0, 400(%rsp)
	.p2align	4, 0x90
.LBB25_126:                             #   Parent Loop BB25_125 Depth=1
                                        # =>  This Inner Loop Header: Depth=2
###SPA## trampoline_fmt_64
	movq	%rbp, %rdi
	movq	%rbp, %rsi
	callq	nanosleep@PLT
	cmpl	$-1, %eax
	jne	.LBB25_128
###SPA### trampoline_fmt_64
# %bb.127:                              #   in Loop: Header=BB25_126 Depth=2
	callq	__errno_location@PLT
	cmpl	$4, (%rax)
	je	.LBB25_126
###SPA### trampoline_fmt_64
.LBB25_128:                             #   in Loop: Header=BB25_125 Depth=1
###SPA## trampoline_fmt_64
	movl	188(%r13), %eax
	testl	%eax, %eax
	jne	.LBB25_125
###SPA### trampoline_fmt_64
	jmp	.LBB25_130
.LBB25_129:
###SPA## trampoline_fmt_64
	movq	352(%rsp), %rax
	movq	360(%rsp), %rcx
	movq	%rcx, (%rax)
	xorl	%r14d, %r14d
	leaq	_ZTVN2js15RootedTraceableIN2JS8GCVectorIPNS_15WasmTableObjectELm0ENS_17SystemAllocPolicyEEEEE+16(%rip), %r12
	movq	80(%rsp), %r15          # 8-byte Reload
	jmp	.LBB25_130
.LBB25_151:
###SPA## trampoline_fmt_64
	movq	296(%rsp), %rdi
	callq	_ZN2js17ReportOutOfMemoryEP9JSContext
	xorl	%r14d, %r14d
	movq	192(%rsp), %rax
	movq	$0, 192(%rsp)
	testq	%rax, %rax
	jne	.LBB25_136
###SPA### trampoline_fmt_64
	jmp	.LBB25_137
.LBB25_152:
###SPA## trampoline_fmt_64
	movq	$0, 416(%rsp)
	movq	(%rsp), %rcx            # 8-byte Reload
	leaq	24(%rcx), %rax
	movq	%rax, 400(%rsp)
	movq	24(%rcx), %rax
	movq	%rax, 408(%rsp)
	leaq	400(%rsp), %rax
	movq	%rax, 24(%rcx)
	movq	48(%r13), %rdi
	callq	_ZNK2js4wasm6Export9funcIndexEv
	movl	%eax, %ebx
	movq	16(%rsp), %rax          # 8-byte Reload
	cmpq	%rbx, 8(%rax)
	jbe	.LBB25_157
###SPA### trampoline_fmt_64
# %bb.153:
	movq	(%rax), %rax
	movq	(%rax,%rbx,8), %rdi
	callq	_ZN2js4wasm22IsWasmExportedFunctionEP10JSFunction
	movq	16(%rsp), %rcx          # 8-byte Reload
	testb	%al, %al
	je	.LBB25_157
###SPA### trampoline_fmt_64
# %bb.154:
	movq	(%rcx), %rax
	movq	(%rax,%rbx,8), %rsi
	movq	%rsi, 416(%rsp)
	jmp	.LBB25_159
.LBB25_155:
###SPA## trampoline_fmt_64
	movq	296(%rsp), %rdi
	callq	_ZN2js17ReportOutOfMemoryEP9JSContext
	xorl	%r15d, %r15d
.LBB25_27:
###SPA## trampoline_fmt_64
	xorl	%r14d, %r14d
	movq	184(%rsp), %rsi
	movq	$0, 184(%rsp)
	testq	%rsi, %rsi
	jne	.LBB25_131
###SPA### trampoline_fmt_64
	jmp	.LBB25_132
.LBB25_157:
###SPA## trampoline_fmt_64
	leaq	416(%rsp), %rcx
	movq	(%rsp), %rdi            # 8-byte Reload
	movq	%rbp, %rsi
	movl	%ebx, %edx
	callq	_ZN2js18WasmInstanceObject19getExportedFunctionEP9JSContextN2JS6HandleIPS0_EEjNS3_13MutableHandleIP10JSFunctionEE
	testb	%al, %al
	je	.LBB25_160
###SPA### trampoline_fmt_64
# %bb.158:
	movq	416(%rsp), %rsi
.LBB25_159:
###SPA## trampoline_fmt_64
	movq	(%rbp), %rdi
	callq	_ZN2js18WasmInstanceObject14initExportsObjER8JSObject
	movq	400(%rsp), %rax
	movq	408(%rsp), %rcx
	movq	%rcx, (%rax)
	jmp	.LBB25_117
.LBB25_160:
###SPA## trampoline_fmt_64
	movq	400(%rsp), %rax
	movq	408(%rsp), %rcx
	movq	%rcx, (%rax)
.LBB25_47:
###SPA## trampoline_fmt_64
	xorl	%r14d, %r14d
.LBB25_130:
###SPA## trampoline_fmt_64
	leaq	136(%rsp), %rdi
	callq	_ZN2JS6RootedINS_8GCVectorIN2js7HeapPtrIPNS2_15StructTypeDescrEEELm0ENS2_17SystemAllocPolicyEEEED2Ev
	movq	184(%rsp), %rsi
	movq	$0, 184(%rsp)
	testq	%rsi, %rsi
	je	.LBB25_132
###SPA### trampoline_fmt_64
.LBB25_131:
###SPA## trampoline_fmt_64
	leaq	184(%rsp), %rdi
	callq	_ZN2JS12DeletePolicyIN2js4wasm10DebugStateEEclEPKS3_
.LBB25_132:
###SPA## trampoline_fmt_64
	testq	%r15, %r15
	je	.LBB25_135
###SPA### trampoline_fmt_64
# %bb.133:
	lock		subq	$1, (%r15)
	jne	.LBB25_135
###SPA### trampoline_fmt_64
# %bb.134:
	movq	%r15, %rdi
	callq	_ZN2js4wasm4CodeD2Ev
	movq	%r15, %rdi
	callq	free@PLT
.LBB25_135:
###SPA## trampoline_fmt_64
	movq	192(%rsp), %rax
	movq	$0, 192(%rsp)
	testq	%rax, %rax
	je	.LBB25_137
###SPA### trampoline_fmt_64
.LBB25_136:
###SPA## trampoline_fmt_64
	movq	72(%rax), %rdi
	callq	free@PLT
.LBB25_137:
###SPA## trampoline_fmt_64
	movq	200(%rsp), %rbp
	movq	208(%rsp), %rax
	testq	%rax, %rax
	jle	.LBB25_144
###SPA### trampoline_fmt_64
.LBB25_138:
###SPA## trampoline_fmt_64
	leaq	(,%rax,8), %r15
	addq	%rbp, %r15
	.p2align	4, 0x90
.LBB25_139:                             # =>This Inner Loop Header: Depth=1
###SPA## trampoline_fmt_64
	movq	(%rbp), %rbx
	testq	%rbx, %rbx
	je	.LBB25_142
###SPA### trampoline_fmt_64
# %bb.140:                              #   in Loop: Header=BB25_139 Depth=1
	lock		subq	$1, (%rbx)
	jne	.LBB25_142
###SPA### trampoline_fmt_64
# %bb.141:                              #   in Loop: Header=BB25_139 Depth=1
	movq	%rbx, %rdi
	callq	_ZN2js4wasm5TableD2Ev
	movq	%rbx, %rdi
	callq	free@PLT
.LBB25_142:                             #   in Loop: Header=BB25_139 Depth=1
###SPA## trampoline_fmt_64
	addq	$8, %rbp
	cmpq	%r15, %rbp
	jb	.LBB25_139
###SPA### trampoline_fmt_64
# %bb.143:
	movq	200(%rsp), %rbp
.LBB25_144:
###SPA## trampoline_fmt_64
	cmpq	$8, %rbp
	je	.LBB25_146
###SPA### trampoline_fmt_64
# %bb.145:
	movq	%rbp, %rdi
	callq	free@PLT
.LBB25_146:
###SPA## trampoline_fmt_64
	movq	224(%rsp), %rax
	movq	232(%rsp), %rcx
	movq	%rcx, (%rax)
	movq	%r12, 240(%rsp)
	movq	248(%rsp), %rdi
	cmpq	$8, %rdi
	je	.LBB25_148
###SPA### trampoline_fmt_64
# %bb.147:
	callq	free@PLT
.LBB25_148:
###SPA## trampoline_fmt_64
	movq	272(%rsp), %rax
	movq	280(%rsp), %rcx
	movq	%rcx, (%rax)
	movq	%fs:40, %rax
	cmpq	512(%rsp), %rax
	je	.LBB25_149
###SPA### trampoline_fmt_64
.LBB25_166:
###SPA## trampoline_fmt_64
	callq	__stack_chk_fail@PLT
.LBB25_162:
###SPA## trampoline_fmt_64
	movq	%rbp, %rdi
	cmpl	$1, 200(%rbp)
	jne	.LBB25_164
###SPA### trampoline_fmt_64
# %bb.163:
	callq	_ZN9JSContext21addPendingOutOfMemoryEv
	xorl	%ebp, %ebp
	jmp	.LBB25_19
.LBB25_164:
###SPA## trampoline_fmt_64
	movq	%rdi, %r9
	movq	192(%rdi), %rdi
	xorl	%ebp, %ebp
	xorl	%esi, %esi
	movl	$72, %ecx
	xorl	%r8d, %r8d
	movq	%r14, %rdx
	callq	_ZN9JSRuntime13onOutOfMemoryEN2js13AllocFunctionEmmPvP9JSContext
	movq	%rax, %rbx
	testq	%rax, %rax
	jne	.LBB25_18
###SPA### trampoline_fmt_64
	jmp	.LBB25_19
.LBB25_165:
###SPA## trampoline_fmt_64
	leaq	.L.str.20(%rip), %rax
	movq	gMozCrashReason@GOTPCREL(%rip), %rcx
	movq	%rax, (%rcx)
	movl	$1392, 0                # imm = 0x570
	callq	abort@PLT
.LBB25_167:
###SPA## trampoline_fmt_64
	leaq	.L.str.19(%rip), %rax
	movq	gMozCrashReason@GOTPCREL(%rip), %rcx
	movq	%rax, (%rcx)
	movl	$1280, 0                # imm = 0x500
	callq	abort@PLT
.LBB25_168:
###SPA## trampoline_fmt_64
	leaq	.L.str.52(%rip), %rax
	movq	gMozCrashReason@GOTPCREL(%rip), %rcx
	movq	%rax, (%rcx)
	movl	$1097, 0                # imm = 0x449
	callq	abort@PLT
.Lfunc_end25:
	.size	_ZNK2js4wasm6Module11instantiateEP9JSContextRNS0_12ImportValuesEN2JS6HandleIP8JSObjectEENS6_13MutableHandleIPNS_18WasmInstanceObjectEEE, .Lfunc_end25-_ZNK2js4wasm6Module11instantiateEP9JSContextRNS0_12ImportValuesEN2JS6HandleIP8JSObjectEENS6_13MutableHandleIPNS_18WasmInstanceObjectEEE
	.cfi_endproc
	.section	.rodata._ZNK2js4wasm6Module11instantiateEP9JSContextRNS0_12ImportValuesEN2JS6HandleIP8JSObjectEENS6_13MutableHandleIPNS_18WasmInstanceObjectEEE,"a",@progbits
	.p2align	2
.LJTI25_0:
	.long	.LBB25_70-.LJTI25_0
	.long	.LBB25_80-.LJTI25_0
	.long	.LBB25_73-.LJTI25_0
	.long	.LBB25_74-.LJTI25_0
                                        # -- End function
	.section	.text._ZN2js4wasm5Realm16registerInstanceEP9JSContextN2JS6HandleIPNS_18WasmInstanceObjectEEE,"ax",@progbits
	.hidden	_ZN2js4wasm5Realm16registerInstanceEP9JSContextN2JS6HandleIPNS_18WasmInstanceObjectEEE # -- Begin function _ZN2js4wasm5Realm16registerInstanceEP9JSContextN2JS6HandleIPNS_18WasmInstanceObjectEEE
	.globl	_ZN2js4wasm5Realm16registerInstanceEP9JSContextN2JS6HandleIPNS_18WasmInstanceObjectEEE
	.p2align	4, 0x90
	.type	_ZN2js4wasm5Realm16registerInstanceEP9JSContextN2JS6HandleIPNS_18WasmInstanceObjectEEE,@function
_ZN2js4wasm5Realm16registerInstanceEP9JSContextN2JS6HandleIPNS_18WasmInstanceObjectEEE: # @_ZN2js4wasm5Realm16registerInstanceEP9JSContextN2JS6HandleIPNS_18WasmInstanceObjectEEE
	.cfi_startproc
	movq	(%rsp), %r10
	addq	%gs:(16), %r10
	movq	%gs:(8), %r11
	movq	%r10, (%rsp, %r11, 1)
# %bb.0:
###SPA## trampoline_fmt_64
	pushq	%rbp
	.cfi_def_cfa_offset 16
	pushq	%r15
	.cfi_def_cfa_offset 24
	pushq	%r14
	.cfi_def_cfa_offset 32
	pushq	%r13
	.cfi_def_cfa_offset 40
	pushq	%r12
	.cfi_def_cfa_offset 48
	pushq	%rbx
	.cfi_def_cfa_offset 56
	subq	$72, %rsp
	.cfi_def_cfa_offset 128
	.cfi_offset %rbx, -56
	.cfi_offset %r12, -48
	.cfi_offset %r13, -40
	.cfi_offset %r14, -32
	.cfi_offset %r15, -24
	.cfi_offset %rbp, -16
	movq	%rdx, %r15
	movq	%rsi, %r14
	movq	%rdi, %rbx
	movq	%fs:40, %rax
	movq	%rax, 64(%rsp)
	movq	(%rdx), %rdi
	callq	_ZNK2js18WasmInstanceObject8instanceEv
	movq	%rax, %r12
	movq	192(%r14), %rax
	xorl	%esi, %esi
	cmpl	$0, 580(%rax)
	setne	%sil
	movq	%r12, %rdi
	callq	_ZNK2js4wasm8Instance21ensureProfilingLabelsEb
	movq	136(%r12), %rdi
	testq	%rdi, %rdi
	je	.LBB26_3
###SPA### trampoline_fmt_64
# %bb.1:
	movq	(%r12), %rax
	movl	648(%rax), %eax
	andl	$3, %eax
	cmpl	$3, %eax
	jne	.LBB26_3
###SPA### trampoline_fmt_64
# %bb.2:
	movl	$1, %edx
	movq	%r14, %rsi
	callq	_ZN2js4wasm10DebugState26ensureEnterFrameTrapsStateEP9JSContextb
.LBB26_3:
###SPA## trampoline_fmt_64
	leaq	8(%rbx), %rbp
	movq	16(%rbx), %rax
	addq	$1, %rax
	cmpq	%rax, 24(%rbx)
	jae	.LBB26_5
###SPA### trampoline_fmt_64
# %bb.4:
	movl	$1, %esi
	movq	%rbp, %rdi
	callq	_ZN7mozilla6VectorIPN2js4wasm8InstanceELm0ENS1_17SystemAllocPolicyEE13growStorageByEm
	testb	%al, %al
	je	.LBB26_62
###SPA### trampoline_fmt_64
.LBB26_5:
###SPA## trampoline_fmt_64
	movq	%rbx, 8(%rsp)           # 8-byte Spill
	movq	%r15, 24(%rsp)          # 8-byte Spill
	movq	192(%r14), %r13
	leaq	18904(%r13), %rbx
	movq	%rbx, %rdi
	callq	_ZN7mozilla6detail9MutexImpl4lockEv@PLT
	leaq	18944(%r13), %r15
	movq	18952(%r13), %rax
	addq	$1, %rax
	movq	%r13, 32(%rsp)          # 8-byte Spill
	cmpq	%rax, 18960(%r13)
	jae	.LBB26_7
###SPA### trampoline_fmt_64
# %bb.6:
	movl	$1, %esi
	movq	%r15, %rdi
	callq	_ZN7mozilla6VectorIPN2js4wasm8InstanceELm0ENS1_17SystemAllocPolicyEE13growStorageByEm
	testb	%al, %al
	je	.LBB26_61
###SPA### trampoline_fmt_64
.LBB26_7:
###SPA## trampoline_fmt_64
	movq	%rbx, 40(%rsp)          # 8-byte Spill
	movq	%r14, 48(%rsp)          # 8-byte Spill
	movq	%r12, 16(%rsp)          # 8-byte Spill
	movq	%r12, 56(%rsp)
	movq	8(%rsp), %rax           # 8-byte Reload
	movq	16(%rax), %r14
	xorl	%ebx, %ebx
	testq	%r14, %r14
	je	.LBB26_8
###SPA### trampoline_fmt_64
# %bb.9:
	leaq	56(%rsp), %r12
	.p2align	4, 0x90
.LBB26_10:                              # =>This Inner Loop Header: Depth=1
###SPA## trampoline_fmt_64
	movq	%r14, %r13
	subq	%rbx, %r13
	shrq	%r13
	addq	%rbx, %r13
	movq	(%rbp), %rax
	movq	(%rax,%r13,8), %rsi
	movq	%r12, %rdi
	callq	_ZNK18InstanceComparatorclEPKN2js4wasm8InstanceE
	testl	%eax, %eax
	je	.LBB26_11
###SPA### trampoline_fmt_64
# %bb.12:                               #   in Loop: Header=BB26_10 Depth=1
	testl	%eax, %eax
	js	.LBB26_13
###SPA### trampoline_fmt_64
# %bb.14:                               #   in Loop: Header=BB26_10 Depth=1
	addq	$1, %r13
	movq	%r13, %rbx
	cmpq	%rbx, %r14
	jne	.LBB26_10
###SPA### trampoline_fmt_64
	jmp	.LBB26_16
	.p2align	4, 0x90
.LBB26_13:                              #   in Loop: Header=BB26_10 Depth=1
###SPA## trampoline_fmt_64
	movq	%r13, %r14
	cmpq	%rbx, %r14
	jne	.LBB26_10
###SPA### trampoline_fmt_64
	jmp	.LBB26_16
.LBB26_8:
###SPA## trampoline_fmt_64
	xorl	%r14d, %r14d
	jmp	.LBB26_17
.LBB26_11:
###SPA## trampoline_fmt_64
	movq	%r13, %r14
.LBB26_16:
###SPA## trampoline_fmt_64
	movq	8(%rsp), %rax           # 8-byte Reload
	movq	16(%rax), %rbx
.LBB26_17:
###SPA## trampoline_fmt_64
	movq	24(%rsp), %r13          # 8-byte Reload
	movq	(%rbp), %rax
	shlq	$3, %r14
	sarq	$3, %r14
	cmpq	%rbx, %r14
	jne	.LBB26_22
###SPA### trampoline_fmt_64
# %bb.18:
	movq	8(%rsp), %rdx           # 8-byte Reload
	cmpq	24(%rdx), %rbx
	jne	.LBB26_21
###SPA### trampoline_fmt_64
# %bb.19:
	movl	$1, %esi
	movq	%rbp, %rdi
	callq	_ZN7mozilla6VectorIPN2js4wasm8InstanceELm0ENS1_17SystemAllocPolicyEE13growStorageByEm
	testb	%al, %al
	je	.LBB26_33
###SPA### trampoline_fmt_64
# %bb.20:
	movq	8(%rsp), %rdx           # 8-byte Reload
	movq	8(%rdx), %rax
	movq	16(%rdx), %rbx
.LBB26_21:
###SPA## trampoline_fmt_64
	movq	16(%rsp), %rcx          # 8-byte Reload
	movq	%rcx, (%rax,%rbx,8)
	addq	$1, 16(%rdx)
	jmp	.LBB26_33
.LBB26_22:
###SPA## trampoline_fmt_64
	movq	-8(%rax,%rbx,8), %r12
	movq	8(%rsp), %rcx           # 8-byte Reload
	cmpq	24(%rcx), %rbx
	jne	.LBB26_23
###SPA### trampoline_fmt_64
# %bb.24:
	movl	$1, %esi
	movq	%rbp, %rdi
	callq	_ZN7mozilla6VectorIPN2js4wasm8InstanceELm0ENS1_17SystemAllocPolicyEE13growStorageByEm
	testb	%al, %al
	je	.LBB26_33
###SPA### trampoline_fmt_64
# %bb.25:
	movq	8(%rsp), %rcx           # 8-byte Reload
	movq	16(%rcx), %rax
	shlq	$3, %rax
	addq	8(%rcx), %rax
	jmp	.LBB26_26
.LBB26_23:
###SPA## trampoline_fmt_64
	leaq	(%rax,%rbx,8), %rax
	movq	8(%rsp), %rcx           # 8-byte Reload
.LBB26_26:
###SPA## trampoline_fmt_64
	movq	%r12, (%rax)
	addq	$1, 16(%rcx)
	leaq	-1(%rbx), %rax
	cmpq	%r14, %rax
	jbe	.LBB26_32
###SPA### trampoline_fmt_64
# %bb.27:
	movl	%r14d, %edx
	notl	%edx
	addl	%ebx, %edx
	leaq	-2(%rbx), %rcx
	subq	%r14, %rcx
	andq	$3, %rdx
	je	.LBB26_31
###SPA### trampoline_fmt_64
# %bb.28:
	negq	%rdx
	.p2align	4, 0x90
.LBB26_29:                              # =>This Inner Loop Header: Depth=1
###SPA## trampoline_fmt_64
	movq	(%rbp), %rax
	movq	-16(%rax,%rbx,8), %rsi
	movq	%rsi, -8(%rax,%rbx,8)
	addq	$-1, %rbx
	addq	$1, %rdx
	jne	.LBB26_29
###SPA### trampoline_fmt_64
# %bb.30:
	leaq	-1(%rbx), %rax
.LBB26_31:
###SPA## trampoline_fmt_64
	cmpq	$3, %rcx
	jb	.LBB26_32
###SPA### trampoline_fmt_64
	.p2align	4, 0x90
.LBB26_65:                              # =>This Inner Loop Header: Depth=1
###SPA## trampoline_fmt_64
	movq	(%rbp), %rcx
	movq	-16(%rcx,%rbx,8), %rdx
	movq	%rdx, (%rcx,%rax,8)
	movq	(%rbp), %rcx
	movq	-16(%rcx,%rax,8), %rdx
	movq	%rdx, -8(%rcx,%rax,8)
	movq	(%rbp), %rcx
	movq	-24(%rcx,%rax,8), %rdx
	movq	%rdx, -16(%rcx,%rax,8)
	movq	(%rbp), %rcx
	movq	-32(%rcx,%rax,8), %rdx
	movq	%rdx, -24(%rcx,%rax,8)
	leaq	-3(%rax), %rbx
	addq	$-4, %rax
	cmpq	%r14, %rax
	ja	.LBB26_65
###SPA### trampoline_fmt_64
.LBB26_32:
###SPA## trampoline_fmt_64
	movq	(%rbp), %rax
	movq	16(%rsp), %rcx          # 8-byte Reload
	movq	%rcx, (%rax,%r14,8)
.LBB26_33:
###SPA## trampoline_fmt_64
	movq	32(%rsp), %rbx          # 8-byte Reload
	movq	18952(%rbx), %r12
	xorl	%ebp, %ebp
	testq	%r12, %r12
	je	.LBB26_34
###SPA### trampoline_fmt_64
# %bb.35:
	leaq	56(%rsp), %r14
	.p2align	4, 0x90
.LBB26_36:                              # =>This Inner Loop Header: Depth=1
###SPA## trampoline_fmt_64
	movq	%r12, %rbx
	subq	%rbp, %rbx
	shrq	%rbx
	addq	%rbp, %rbx
	movq	(%r15), %rax
	movq	(%rax,%rbx,8), %rsi
	movq	%r14, %rdi
	callq	_ZNK18InstanceComparatorclEPKN2js4wasm8InstanceE
	testl	%eax, %eax
	je	.LBB26_37
###SPA### trampoline_fmt_64
# %bb.38:                               #   in Loop: Header=BB26_36 Depth=1
	testl	%eax, %eax
	js	.LBB26_39
###SPA### trampoline_fmt_64
# %bb.40:                               #   in Loop: Header=BB26_36 Depth=1
	addq	$1, %rbx
	movq	%rbx, %rbp
	cmpq	%rbp, %r12
	jne	.LBB26_36
###SPA### trampoline_fmt_64
	jmp	.LBB26_42
	.p2align	4, 0x90
.LBB26_39:                              #   in Loop: Header=BB26_36 Depth=1
###SPA## trampoline_fmt_64
	movq	%rbx, %r12
	cmpq	%rbp, %r12
	jne	.LBB26_36
###SPA### trampoline_fmt_64
	jmp	.LBB26_42
.LBB26_34:
###SPA## trampoline_fmt_64
	xorl	%r12d, %r12d
	jmp	.LBB26_43
.LBB26_37:
###SPA## trampoline_fmt_64
	movq	%rbx, %r12
.LBB26_42:
###SPA## trampoline_fmt_64
	movq	32(%rsp), %rbx          # 8-byte Reload
	movq	18952(%rbx), %rbp
.LBB26_43:
###SPA## trampoline_fmt_64
	movq	(%r15), %rax
	shlq	$3, %r12
	sarq	$3, %r12
	cmpq	%rbp, %r12
	jne	.LBB26_48
###SPA### trampoline_fmt_64
# %bb.44:
	cmpq	18960(%rbx), %rbp
	jne	.LBB26_47
###SPA### trampoline_fmt_64
# %bb.45:
	movl	$1, %esi
	movq	%r15, %rdi
	callq	_ZN7mozilla6VectorIPN2js4wasm8InstanceELm0ENS1_17SystemAllocPolicyEE13growStorageByEm
	testb	%al, %al
	je	.LBB26_59
###SPA### trampoline_fmt_64
# %bb.46:
	movq	18944(%rbx), %rax
	movq	18952(%rbx), %rbp
.LBB26_47:
###SPA## trampoline_fmt_64
	movq	16(%rsp), %rcx          # 8-byte Reload
	movq	%rcx, (%rax,%rbp,8)
	addq	$1, 18952(%rbx)
	jmp	.LBB26_59
.LBB26_48:
###SPA## trampoline_fmt_64
	movq	-8(%rax,%rbp,8), %r14
	cmpq	18960(%rbx), %rbp
	jne	.LBB26_49
###SPA### trampoline_fmt_64
# %bb.50:
	movl	$1, %esi
	movq	%r15, %rdi
	callq	_ZN7mozilla6VectorIPN2js4wasm8InstanceELm0ENS1_17SystemAllocPolicyEE13growStorageByEm
	testb	%al, %al
	je	.LBB26_59
###SPA### trampoline_fmt_64
# %bb.51:
	movq	18952(%rbx), %rax
	shlq	$3, %rax
	addq	18944(%rbx), %rax
	jmp	.LBB26_52
.LBB26_49:
###SPA## trampoline_fmt_64
	leaq	(%rax,%rbp,8), %rax
.LBB26_52:
###SPA## trampoline_fmt_64
	movq	%r14, (%rax)
	addq	$1, 18952(%rbx)
	leaq	-1(%rbp), %rax
	cmpq	%r12, %rax
	movq	16(%rsp), %rdi          # 8-byte Reload
	jbe	.LBB26_58
###SPA### trampoline_fmt_64
# %bb.53:
	movl	%r12d, %edx
	notl	%edx
	addl	%ebp, %edx
	leaq	-2(%rbp), %rcx
	subq	%r12, %rcx
	andq	$3, %rdx
	je	.LBB26_57
###SPA### trampoline_fmt_64
# %bb.54:
	negq	%rdx
	.p2align	4, 0x90
.LBB26_55:                              # =>This Inner Loop Header: Depth=1
###SPA## trampoline_fmt_64
	movq	(%r15), %rax
	movq	-16(%rax,%rbp,8), %rsi
	movq	%rsi, -8(%rax,%rbp,8)
	addq	$-1, %rbp
	addq	$1, %rdx
	jne	.LBB26_55
###SPA### trampoline_fmt_64
# %bb.56:
	leaq	-1(%rbp), %rax
.LBB26_57:
###SPA## trampoline_fmt_64
	cmpq	$3, %rcx
	jb	.LBB26_58
###SPA### trampoline_fmt_64
	.p2align	4, 0x90
.LBB26_66:                              # =>This Inner Loop Header: Depth=1
###SPA## trampoline_fmt_64
	movq	(%r15), %rcx
	movq	-16(%rcx,%rbp,8), %rdx
	movq	%rdx, (%rcx,%rax,8)
	movq	(%r15), %rcx
	movq	-16(%rcx,%rax,8), %rdx
	movq	%rdx, -8(%rcx,%rax,8)
	movq	(%r15), %rcx
	movq	-24(%rcx,%rax,8), %rdx
	movq	%rdx, -16(%rcx,%rax,8)
	movq	(%r15), %rcx
	movq	-32(%rcx,%rax,8), %rdx
	movq	%rdx, -24(%rcx,%rax,8)
	leaq	-3(%rax), %rbp
	addq	$-4, %rax
	cmpq	%r12, %rax
	ja	.LBB26_66
###SPA### trampoline_fmt_64
.LBB26_58:
###SPA## trampoline_fmt_64
	movq	(%r15), %rax
	movq	%rdi, (%rax,%r12,8)
.LBB26_59:
###SPA## trampoline_fmt_64
	movq	40(%rsp), %rdi          # 8-byte Reload
	callq	_ZN7mozilla6detail9MutexImpl6unlockEv@PLT
	movq	48(%rsp), %rdi          # 8-byte Reload
	movq	152(%rdi), %rax
	movb	$1, %bl
	testb	$1, 648(%rax)
	je	.LBB26_63
###SPA### trampoline_fmt_64
# %bb.60:
	movq	%r13, %rsi
	callq	_ZN2js8DebugAPI25slowPathOnNewWasmInstanceEP9JSContextN2JS6HandleIPNS_18WasmInstanceObjectEEE
.LBB26_63:
###SPA## trampoline_fmt_64
	movq	%fs:40, %rax
	cmpq	64(%rsp), %rax
	jne	.LBB26_64
###SPA### trampoline_fmt_64
.LBB26_67:
###SPA## trampoline_fmt_64
	movl	%ebx, %eax
	addq	$72, %rsp
	.cfi_def_cfa_offset 56
	popq	%rbx
	.cfi_def_cfa_offset 48
	popq	%r12
	.cfi_def_cfa_offset 40
	popq	%r13
	.cfi_def_cfa_offset 32
	popq	%r14
	.cfi_def_cfa_offset 24
	popq	%r15
	.cfi_def_cfa_offset 16
	popq	%rbp
	.cfi_def_cfa_offset 8
	movq	%gs:(8), %r11
	movq	(%rsp, %r11, 1), %r11
	subq	%gs:(16), %r11
	addq	$8, %rsp
	jmpq	*%r11
.LBB26_61:
	.cfi_def_cfa_offset 128
###SPA## trampoline_fmt_64
	movq	%rbx, %rdi
	callq	_ZN7mozilla6detail9MutexImpl6unlockEv@PLT
.LBB26_62:
###SPA## trampoline_fmt_64
	xorl	%ebx, %ebx
	movq	%fs:40, %rax
	cmpq	64(%rsp), %rax
	je	.LBB26_67
###SPA### trampoline_fmt_64
.LBB26_64:
###SPA## trampoline_fmt_64
	callq	__stack_chk_fail@PLT
.Lfunc_end26:
	.size	_ZN2js4wasm5Realm16registerInstanceEP9JSContextN2JS6HandleIPNS_18WasmInstanceObjectEEE, .Lfunc_end26-_ZN2js4wasm5Realm16registerInstanceEP9JSContextN2JS6HandleIPNS_18WasmInstanceObjectEEE
	.cfi_endproc
                                        # -- End function
	.section	.text._ZN2JS6RootedINS_8GCVectorIN2js7HeapPtrIPNS2_15StructTypeDescrEEELm0ENS2_17SystemAllocPolicyEEEED2Ev,"axG",@progbits,_ZN2JS6RootedINS_8GCVectorIN2js7HeapPtrIPNS2_15StructTypeDescrEEELm0ENS2_17SystemAllocPolicyEEEED2Ev,comdat
	.hidden	_ZN2JS6RootedINS_8GCVectorIN2js7HeapPtrIPNS2_15StructTypeDescrEEELm0ENS2_17SystemAllocPolicyEEEED2Ev # -- Begin function _ZN2JS6RootedINS_8GCVectorIN2js7HeapPtrIPNS2_15StructTypeDescrEEELm0ENS2_17SystemAllocPolicyEEEED2Ev
	.weak	_ZN2JS6RootedINS_8GCVectorIN2js7HeapPtrIPNS2_15StructTypeDescrEEELm0ENS2_17SystemAllocPolicyEEEED2Ev
	.p2align	4, 0x90
	.type	_ZN2JS6RootedINS_8GCVectorIN2js7HeapPtrIPNS2_15StructTypeDescrEEELm0ENS2_17SystemAllocPolicyEEEED2Ev,@function
_ZN2JS6RootedINS_8GCVectorIN2js7HeapPtrIPNS2_15StructTypeDescrEEELm0ENS2_17SystemAllocPolicyEEEED2Ev: # @_ZN2JS6RootedINS_8GCVectorIN2js7HeapPtrIPNS2_15StructTypeDescrEEELm0ENS2_17SystemAllocPolicyEEEED2Ev
	.cfi_startproc
	movq	(%rsp), %r10
	addq	%gs:(16), %r10
	movq	%gs:(8), %r11
	movq	%r10, (%rsp, %r11, 1)
# %bb.0:
###SPA## trampoline_fmt_64
	pushq	%r15
	.cfi_def_cfa_offset 16
	pushq	%r14
	.cfi_def_cfa_offset 24
	pushq	%r13
	.cfi_def_cfa_offset 32
	pushq	%r12
	.cfi_def_cfa_offset 40
	pushq	%rbx
	.cfi_def_cfa_offset 48
	subq	$16, %rsp
	.cfi_def_cfa_offset 64
	.cfi_offset %rbx, -48
	.cfi_offset %r12, -40
	.cfi_offset %r13, -32
	.cfi_offset %r14, -24
	.cfi_offset %r15, -16
	movq	%fs:40, %rax
	movq	%rax, 8(%rsp)
	movq	(%rdi), %rax
	movq	8(%rdi), %rcx
	movq	%rcx, (%rax)
	leaq	_ZTVN2js15RootedTraceableIN2JS8GCVectorINS_7HeapPtrIPNS_15StructTypeDescrEEELm0ENS_17SystemAllocPolicyEEEEE+16(%rip), %rax
	movq	%rax, 16(%rdi)
	movq	24(%rdi), %rbx
	movq	32(%rdi), %rax
	testq	%rax, %rax
	jle	.LBB27_14
###SPA### trampoline_fmt_64
# %bb.1:
	movq	%rdi, %r14
	leaq	(%rbx,%rax,8), %r13
	movq	%rsp, %r15
	leaq	.L.str.290(%rip), %r12
	.p2align	4, 0x90
.LBB27_2:                               # =>This Inner Loop Header: Depth=1
###SPA## trampoline_fmt_64
	movq	(%rbx), %rcx
	testq	%rcx, %rcx
	je	.LBB27_12
###SPA### trampoline_fmt_64
# %bb.3:                                #   in Loop: Header=BB27_2 Depth=1
	movq	%rcx, %rax
	andq	$-1048576, %rax         # imm = 0xFFF00000
	cmpl	$1, 1048552(%rax)
	je	.LBB27_7
###SPA### trampoline_fmt_64
# %bb.4:                                #   in Loop: Header=BB27_2 Depth=1
	movq	%rcx, %rdx
	andq	$-4096, %rdx            # imm = 0xF000
	movq	8(%rdx), %rdx
	cmpl	$0, 16(%rdx)
	je	.LBB27_7
###SPA### trampoline_fmt_64
# %bb.5:                                #   in Loop: Header=BB27_2 Depth=1
	movq	%rcx, (%rsp)
	movq	8(%rdx), %rdi
	movq	%r15, %rsi
	movq	%r12, %rdx
	callq	_ZN2js40TraceManuallyBarrieredGenericPointerEdgeEP8JSTracerPPNS_2gc4CellEPKc
	movq	(%rbx), %rax
	testq	%rax, %rax
	je	.LBB27_12
###SPA### trampoline_fmt_64
# %bb.6:                                #   in Loop: Header=BB27_2 Depth=1
	andq	$-1048576, %rax         # imm = 0xFFF00000
.LBB27_7:                               #   in Loop: Header=BB27_2 Depth=1
###SPA## trampoline_fmt_64
	movq	1048560(%rax), %rdi
	testq	%rdi, %rdi
	je	.LBB27_12
###SPA### trampoline_fmt_64
# %bb.8:                                #   in Loop: Header=BB27_2 Depth=1
	movq	%rbx, (%rsp)
	cmpb	$0, 353(%rdi)
	je	.LBB27_12
###SPA### trampoline_fmt_64
# %bb.9:                                #   in Loop: Header=BB27_2 Depth=1
	cmpq	208(%rdi), %rbx
	je	.LBB27_10
###SPA### trampoline_fmt_64
# %bb.11:                               #   in Loop: Header=BB27_2 Depth=1
	addq	$184, %rdi
	movq	%r15, %rsi
	callq	_ZN7mozilla7HashSetIN2js2gc11StoreBuffer11CellPtrEdgeI8JSObjectEENS3_17PointerEdgeHasherIS6_EENS1_17SystemAllocPolicyEE6removeERKS6_
	.p2align	4, 0x90
.LBB27_12:                              #   in Loop: Header=BB27_2 Depth=1
###SPA## trampoline_fmt_64
	addq	$8, %rbx
	cmpq	%r13, %rbx
	jb	.LBB27_2
###SPA### trampoline_fmt_64
	jmp	.LBB27_13
.LBB27_10:                              #   in Loop: Header=BB27_2 Depth=1
###SPA## trampoline_fmt_64
	movq	$0, 208(%rdi)
	addq	$8, %rbx
	cmpq	%r13, %rbx
	jb	.LBB27_2
###SPA### trampoline_fmt_64
.LBB27_13:
###SPA## trampoline_fmt_64
	movq	24(%r14), %rbx
.LBB27_14:
###SPA## trampoline_fmt_64
	cmpq	$8, %rbx
	je	.LBB27_16
###SPA### trampoline_fmt_64
# %bb.15:
	movq	%rbx, %rdi
	callq	free@PLT
.LBB27_16:
###SPA## trampoline_fmt_64
	movq	%fs:40, %rax
	cmpq	8(%rsp), %rax
	jne	.LBB27_18
###SPA### trampoline_fmt_64
# %bb.17:
	addq	$16, %rsp
	.cfi_def_cfa_offset 48
	popq	%rbx
	.cfi_def_cfa_offset 40
	popq	%r12
	.cfi_def_cfa_offset 32
	popq	%r13
	.cfi_def_cfa_offset 24
	popq	%r14
	.cfi_def_cfa_offset 16
	popq	%r15
	.cfi_def_cfa_offset 8
	movq	%gs:(8), %r11
	movq	(%rsp, %r11, 1), %r11
	subq	%gs:(16), %r11
	addq	$8, %rsp
	jmpq	*%r11
.LBB27_18:
	.cfi_def_cfa_offset 64
###SPA## trampoline_fmt_64
	callq	__stack_chk_fail@PLT
.Lfunc_end27:
	.size	_ZN2JS6RootedINS_8GCVectorIN2js7HeapPtrIPNS2_15StructTypeDescrEEELm0ENS2_17SystemAllocPolicyEEEED2Ev, .Lfunc_end27-_ZN2JS6RootedINS_8GCVectorIN2js7HeapPtrIPNS2_15StructTypeDescrEEELm0ENS2_17SystemAllocPolicyEEEED2Ev
	.cfi_endproc
                                        # -- End function
	.section	.text._ZN2js4wasm19RegisterCodeSegmentEPKNS0_11CodeSegmentE,"ax",@progbits
	.hidden	_ZN2js4wasm19RegisterCodeSegmentEPKNS0_11CodeSegmentE # -- Begin function _ZN2js4wasm19RegisterCodeSegmentEPKNS0_11CodeSegmentE
	.globl	_ZN2js4wasm19RegisterCodeSegmentEPKNS0_11CodeSegmentE
	.p2align	4, 0x90
	.type	_ZN2js4wasm19RegisterCodeSegmentEPKNS0_11CodeSegmentE,@function
_ZN2js4wasm19RegisterCodeSegmentEPKNS0_11CodeSegmentE: # @_ZN2js4wasm19RegisterCodeSegmentEPKNS0_11CodeSegmentE
	.cfi_startproc
	movq	(%rsp), %r10
	addq	%gs:(16), %r10
	movq	%gs:(8), %r11
	movq	%r10, (%rsp, %r11, 1)
# %bb.0:
###SPA## trampoline_fmt_64
	movq	%rdi, %rax
	movq	_ZL22sProcessCodeSegmentMap(%rip), %rdi
	testq	%rdi, %rdi
	je	.LBB28_1
###SPA### trampoline_fmt_64
# %bb.2:
	movq	%rax, %rsi
	jmp	_ZN21ProcessCodeSegmentMap6insertEPKN2js4wasm11CodeSegmentE # TAILCALL
.LBB28_1:
###SPA## trampoline_fmt_64
	pushq	%rax
	.cfi_def_cfa_offset 16
	leaq	.L.str.21(%rip), %rax
	movq	gMozCrashReason@GOTPCREL(%rip), %rcx
	movq	%rax, (%rcx)
	movl	$228, 0
	callq	abort@PLT
.Lfunc_end28:
	.size	_ZN2js4wasm19RegisterCodeSegmentEPKNS0_11CodeSegmentE, .Lfunc_end28-_ZN2js4wasm19RegisterCodeSegmentEPKNS0_11CodeSegmentE
	.cfi_endproc
                                        # -- End function
	.section	.text._ZN21ProcessCodeSegmentMap6insertEPKN2js4wasm11CodeSegmentE,"axG",@progbits,_ZN21ProcessCodeSegmentMap6insertEPKN2js4wasm11CodeSegmentE,comdat
	.hidden	_ZN21ProcessCodeSegmentMap6insertEPKN2js4wasm11CodeSegmentE # -- Begin function _ZN21ProcessCodeSegmentMap6insertEPKN2js4wasm11CodeSegmentE
	.weak	_ZN21ProcessCodeSegmentMap6insertEPKN2js4wasm11CodeSegmentE
	.p2align	4, 0x90
	.type	_ZN21ProcessCodeSegmentMap6insertEPKN2js4wasm11CodeSegmentE,@function
_ZN21ProcessCodeSegmentMap6insertEPKN2js4wasm11CodeSegmentE: # @_ZN21ProcessCodeSegmentMap6insertEPKN2js4wasm11CodeSegmentE
	.cfi_startproc
	movq	(%rsp), %r10
	addq	%gs:(16), %r10
	movq	%gs:(8), %r11
	movq	%r10, (%rsp, %r11, 1)
# %bb.0:
###SPA## trampoline_fmt_64
	pushq	%rbp
	.cfi_def_cfa_offset 16
	pushq	%r15
	.cfi_def_cfa_offset 24
	pushq	%r14
	.cfi_def_cfa_offset 32
	pushq	%r13
	.cfi_def_cfa_offset 40
	pushq	%r12
	.cfi_def_cfa_offset 48
	pushq	%rbx
	.cfi_def_cfa_offset 56
	subq	$40, %rsp
	.cfi_def_cfa_offset 96
	.cfi_offset %rbx, -56
	.cfi_offset %r12, -48
	.cfi_offset %r13, -40
	.cfi_offset %r14, -32
	.cfi_offset %r15, -24
	.cfi_offset %rbp, -16
	movq	%rsi, %rbx
	movq	%rdi, %r14
	movq	%fs:40, %rax
	movq	%rax, 32(%rsp)
	callq	_ZN7mozilla6detail9MutexImpl4lockEv@PLT
	movq	88(%r14), %r13
	movq	(%r13), %rax
	movq	8(%r13), %rbp
	testq	%rbp, %rbp
	movq	%rbx, 8(%rsp)           # 8-byte Spill
	je	.LBB29_7
###SPA### trampoline_fmt_64
# %bb.1:
	movq	(%rbx), %rcx
	xorl	%edx, %edx
	movq	%rbp, %r15
	.p2align	4, 0x90
.LBB29_2:                               # =>This Inner Loop Header: Depth=1
###SPA## trampoline_fmt_64
	movq	%r15, %rsi
	subq	%rdx, %rsi
	shrq	%rsi
	addq	%rdx, %rsi
	movq	(%rax,%rsi,8), %rbx
	movq	(%rbx), %rdi
	cmpq	%rcx, %rdi
	ja	.LBB29_4
###SPA### trampoline_fmt_64
# %bb.3:                                #   in Loop: Header=BB29_2 Depth=1
	movl	16(%rbx), %ebx
	addq	%rdi, %rbx
	cmpq	%rcx, %rbx
	ja	.LBB29_8
###SPA### trampoline_fmt_64
.LBB29_4:                               #   in Loop: Header=BB29_2 Depth=1
###SPA## trampoline_fmt_64
	cmpq	%rcx, %rdi
	ja	.LBB29_6
###SPA### trampoline_fmt_64
# %bb.5:                                #   in Loop: Header=BB29_2 Depth=1
	addq	$1, %rsi
	movq	%rsi, %rdx
	cmpq	%rdx, %r15
	jne	.LBB29_2
###SPA### trampoline_fmt_64
	jmp	.LBB29_9
	.p2align	4, 0x90
.LBB29_6:                               #   in Loop: Header=BB29_2 Depth=1
###SPA## trampoline_fmt_64
	movq	%rsi, %r15
	cmpq	%rdx, %r15
	jne	.LBB29_2
###SPA### trampoline_fmt_64
	jmp	.LBB29_9
.LBB29_7:
###SPA## trampoline_fmt_64
	xorl	%r15d, %r15d
	jmp	.LBB29_9
.LBB29_8:
###SPA## trampoline_fmt_64
	movq	%rsi, %r15
.LBB29_9:
###SPA## trampoline_fmt_64
	shlq	$3, %r15
	movq	%r15, %r12
	sarq	$3, %r12
	cmpq	%rbp, %r12
	movq	%r14, 16(%rsp)          # 8-byte Spill
	jne	.LBB29_21
###SPA### trampoline_fmt_64
# %bb.10:
	cmpq	16(%r13), %rbp
	jne	.LBB29_13
###SPA### trampoline_fmt_64
# %bb.11:
	movl	$1, %esi
	movq	%r13, %rdi
	callq	_ZN7mozilla6VectorIPKN2js4wasm11CodeSegmentELm0ENS1_17SystemAllocPolicyEE13growStorageByEm
	testb	%al, %al
	je	.LBB29_50
###SPA### trampoline_fmt_64
# %bb.12:
	movq	(%r13), %rax
	movq	8(%r13), %rbp
.LBB29_13:
###SPA## trampoline_fmt_64
	movq	8(%rsp), %rcx           # 8-byte Reload
	movq	%rcx, (%rax,%rbp,8)
	addq	$1, 8(%r13)
	leaq	(,%r12,8), %rbp
	movq	(%r13), %rax
	addq	%rbp, %rax
	je	.LBB29_50
###SPA### trampoline_fmt_64
.LBB29_14:
###SPA## trampoline_fmt_64
	movl	$1, %eax
	xchgl	%eax, _ZN2js4wasm10CodeExistsE(%rip)
	movq	88(%r14), %rax
	xchgq	%rax, 96(%r14)
	movq	%rax, 88(%r14)
	.p2align	4, 0x90
.LBB29_15:                              # =>This Inner Loop Header: Depth=1
###SPA## trampoline_fmt_64
	movq	_ZL17sNumActiveLookups(%rip), %rax
	testq	%rax, %rax
	jne	.LBB29_15
###SPA### trampoline_fmt_64
# %bb.16:
	movq	88(%r14), %r13
	movq	(%r13), %rax
	movq	8(%r13), %r14
	cmpq	%r14, %r12
	jne	.LBB29_24
###SPA### trampoline_fmt_64
# %bb.17:
	cmpq	16(%r13), %r12
	jne	.LBB29_20
###SPA### trampoline_fmt_64
# %bb.18:
	movl	$1, %esi
	movq	%r13, %rdi
	callq	_ZN7mozilla6VectorIPKN2js4wasm11CodeSegmentELm0ENS1_17SystemAllocPolicyEE13growStorageByEm
	testb	%al, %al
	je	.LBB29_52
###SPA### trampoline_fmt_64
# %bb.19:
	movq	(%r13), %rax
	movq	8(%r13), %r12
.LBB29_20:
###SPA## trampoline_fmt_64
	movq	8(%rsp), %rcx           # 8-byte Reload
	movq	%rcx, (%rax,%r12,8)
	addq	$1, 8(%r13)
	addq	(%r13), %rbp
	jne	.LBB29_46
###SPA### trampoline_fmt_64
	jmp	.LBB29_52
.LBB29_21:
###SPA## trampoline_fmt_64
	movq	-8(%rax,%rbp,8), %r14
	cmpq	16(%r13), %rbp
	jne	.LBB29_27
###SPA### trampoline_fmt_64
# %bb.22:
	movl	$1, %esi
	movq	%r13, %rdi
	callq	_ZN7mozilla6VectorIPKN2js4wasm11CodeSegmentELm0ENS1_17SystemAllocPolicyEE13growStorageByEm
	testb	%al, %al
	je	.LBB29_51
###SPA### trampoline_fmt_64
# %bb.23:
	movq	8(%r13), %rax
	shlq	$3, %rax
	addq	(%r13), %rax
	jmp	.LBB29_28
.LBB29_24:
###SPA## trampoline_fmt_64
	movq	-8(%rax,%r14,8), %rbx
	cmpq	16(%r13), %r14
	jne	.LBB29_37
###SPA### trampoline_fmt_64
# %bb.25:
	movl	$1, %esi
	movq	%r13, %rdi
	callq	_ZN7mozilla6VectorIPKN2js4wasm11CodeSegmentELm0ENS1_17SystemAllocPolicyEE13growStorageByEm
	testb	%al, %al
	je	.LBB29_52
###SPA### trampoline_fmt_64
# %bb.26:
	movq	8(%r13), %rax
	shlq	$3, %rax
	addq	(%r13), %rax
	jmp	.LBB29_38
.LBB29_27:
###SPA## trampoline_fmt_64
	leaq	(%rax,%rbp,8), %rax
.LBB29_28:
###SPA## trampoline_fmt_64
	movq	%r14, (%rax)
	addq	$1, 8(%r13)
	leaq	-1(%rbp), %rax
	cmpq	%r12, %rax
	movq	16(%rsp), %r14          # 8-byte Reload
	jbe	.LBB29_35
###SPA### trampoline_fmt_64
# %bb.29:
	movq	%r15, %rdx
	sarq	$3, %rdx
	leaq	-2(%rbp), %rcx
	subq	%rdx, %rcx
                                        # kill: def $edx killed $edx killed $rdx def $rdx
	notl	%edx
	addl	%ebp, %edx
	andq	$3, %rdx
	je	.LBB29_33
###SPA### trampoline_fmt_64
# %bb.30:
	negq	%rdx
	.p2align	4, 0x90
.LBB29_31:                              # =>This Inner Loop Header: Depth=1
###SPA## trampoline_fmt_64
	movq	(%r13), %rax
	movq	-16(%rax,%rbp,8), %rsi
	movq	%rsi, -8(%rax,%rbp,8)
	addq	$-1, %rbp
	addq	$1, %rdx
	jne	.LBB29_31
###SPA### trampoline_fmt_64
# %bb.32:
	leaq	-1(%rbp), %rax
.LBB29_33:
###SPA## trampoline_fmt_64
	cmpq	$3, %rcx
	jb	.LBB29_35
###SPA### trampoline_fmt_64
	.p2align	4, 0x90
.LBB29_34:                              # =>This Inner Loop Header: Depth=1
###SPA## trampoline_fmt_64
	movq	(%r13), %rcx
	movq	-16(%rcx,%rbp,8), %rdx
	movq	%rdx, (%rcx,%rax,8)
	movq	(%r13), %rcx
	movq	-16(%rcx,%rax,8), %rdx
	movq	%rdx, -8(%rcx,%rax,8)
	movq	(%r13), %rcx
	movq	-24(%rcx,%rax,8), %rdx
	movq	%rdx, -16(%rcx,%rax,8)
	movq	(%r13), %rcx
	movq	-32(%rcx,%rax,8), %rdx
	movq	%rdx, -24(%rcx,%rax,8)
	leaq	-3(%rax), %rbp
	addq	$-4, %rax
	cmpq	%r12, %rax
	ja	.LBB29_34
###SPA### trampoline_fmt_64
.LBB29_35:
###SPA## trampoline_fmt_64
	movq	(%r13), %rax
	movq	8(%rsp), %rcx           # 8-byte Reload
	movq	%rcx, (%rax,%r12,8)
	leaq	(,%r12,8), %rbp
	movq	(%r13), %rax
	addq	%rbp, %rax
	jne	.LBB29_14
###SPA### trampoline_fmt_64
.LBB29_50:
###SPA## trampoline_fmt_64
	xorl	%ebx, %ebx
	jmp	.LBB29_48
.LBB29_37:
###SPA## trampoline_fmt_64
	leaq	(%rax,%r14,8), %rax
.LBB29_38:
###SPA## trampoline_fmt_64
	movq	%rbx, (%rax)
	addq	$1, 8(%r13)
	leaq	-1(%r14), %rax
	cmpq	%r12, %rax
	jbe	.LBB29_45
###SPA### trampoline_fmt_64
# %bb.39:
	sarq	$3, %r15
	movl	%r15d, %edx
	notl	%edx
	addl	%r14d, %edx
	leaq	-2(%r14), %rcx
	subq	%r15, %rcx
	andq	$3, %rdx
	je	.LBB29_43
###SPA### trampoline_fmt_64
# %bb.40:
	negq	%rdx
	.p2align	4, 0x90
.LBB29_41:                              # =>This Inner Loop Header: Depth=1
###SPA## trampoline_fmt_64
	movq	(%r13), %rax
	movq	-16(%rax,%r14,8), %rsi
	movq	%rsi, -8(%rax,%r14,8)
	addq	$-1, %r14
	addq	$1, %rdx
	jne	.LBB29_41
###SPA### trampoline_fmt_64
# %bb.42:
	leaq	-1(%r14), %rax
.LBB29_43:
###SPA## trampoline_fmt_64
	cmpq	$3, %rcx
	jb	.LBB29_45
###SPA### trampoline_fmt_64
	.p2align	4, 0x90
.LBB29_44:                              # =>This Inner Loop Header: Depth=1
###SPA## trampoline_fmt_64
	movq	(%r13), %rcx
	movq	-16(%rcx,%r14,8), %rdx
	movq	%rdx, (%rcx,%rax,8)
	movq	(%r13), %rcx
	movq	-16(%rcx,%rax,8), %rdx
	movq	%rdx, -8(%rcx,%rax,8)
	movq	(%r13), %rcx
	movq	-24(%rcx,%rax,8), %rdx
	movq	%rdx, -16(%rcx,%rax,8)
	movq	(%r13), %rcx
	movq	-32(%rcx,%rax,8), %rdx
	movq	%rdx, -24(%rcx,%rax,8)
	leaq	-3(%rax), %r14
	addq	$-4, %rax
	cmpq	%r12, %rax
	ja	.LBB29_44
###SPA### trampoline_fmt_64
.LBB29_45:
###SPA## trampoline_fmt_64
	movq	(%r13), %rax
	movq	8(%rsp), %rcx           # 8-byte Reload
	movq	%rcx, (%rax,%r12,8)
	addq	(%r13), %rbp
	je	.LBB29_52
###SPA### trampoline_fmt_64
.LBB29_46:
###SPA## trampoline_fmt_64
	movb	$1, %bl
.LBB29_47:
###SPA## trampoline_fmt_64
	movq	16(%rsp), %r14          # 8-byte Reload
.LBB29_48:
###SPA## trampoline_fmt_64
	movq	%r14, %rdi
	callq	_ZN7mozilla6detail9MutexImpl6unlockEv@PLT
	movq	%fs:40, %rax
	cmpq	32(%rsp), %rax
	jne	.LBB29_53
###SPA### trampoline_fmt_64
# %bb.49:
	movl	%ebx, %eax
	addq	$40, %rsp
	.cfi_def_cfa_offset 56
	popq	%rbx
	.cfi_def_cfa_offset 48
	popq	%r12
	.cfi_def_cfa_offset 40
	popq	%r13
	.cfi_def_cfa_offset 32
	popq	%r14
	.cfi_def_cfa_offset 24
	popq	%r15
	.cfi_def_cfa_offset 16
	popq	%rbp
	.cfi_def_cfa_offset 8
	movq	%gs:(8), %r11
	movq	(%rsp, %r11, 1), %r11
	subq	%gs:(16), %r11
	addq	$8, %rsp
	jmpq	*%r11
.LBB29_51:
	.cfi_def_cfa_offset 96
###SPA## trampoline_fmt_64
	xorl	%ebx, %ebx
